---
triple:          'arm64-apple-darwin'
binary-path:     '/Users/chon/Desktop/cs160project/CTorch/src/tensor'
relocations:
  - { offsetInCU: 0x63B0, offset: 0x63B0, size: 0x8, addend: 0x0, symName: __ZNSt3__124__put_character_sequenceB8ue170006IcNS_11char_traitsIcEEEERNS_13basic_ostreamIT_T0_EES7_PKS4_m, symObjAddr: 0x6658, symBinAddr: 0x1000098C0, symSize: 0x1EC }
  - { offsetInCU: 0x82F6, offset: 0x82F6, size: 0x8, addend: 0x0, symName: __ZNSt3__122__make_exception_guardB8ue170006INS_6vectorIiNS_9allocatorIiEEE16__destroy_vectorEEENS_28__exception_guard_exceptionsIT_EES7_, symObjAddr: 0x750, symBinAddr: 0x1000039B8, symSize: 0x40 }
  - { offsetInCU: 0x832B, offset: 0x832B, size: 0x8, addend: 0x0, symName: __ZNSt3__119__allocate_at_leastB8ue170006INS_9allocatorIiEEEENS_19__allocation_resultINS_16allocator_traitsIT_E7pointerEEERS5_m, symObjAddr: 0xB50, symBinAddr: 0x100003DB8, symSize: 0x40 }
  - { offsetInCU: 0x836E, offset: 0x836E, size: 0x8, addend: 0x0, symName: __ZNSt3__13minB8ue170006ImEERKT_S3_S3_, symObjAddr: 0xC8C, symBinAddr: 0x100003EF4, symSize: 0x2C }
  - { offsetInCU: 0x85B2, offset: 0x85B2, size: 0x8, addend: 0x0, symName: __ZNSt3__13minB8ue170006ImNS_6__lessIvvEEEERKT_S5_S5_T0_, symObjAddr: 0xD24, symBinAddr: 0x100003F8C, symSize: 0x54 }
  - { offsetInCU: 0x8651, offset: 0x8651, size: 0x8, addend: 0x0, symName: __ZNSt3__120__throw_length_errorB8ue170006EPKc, symObjAddr: 0xE00, symBinAddr: 0x100004068, symSize: 0x64 }
  - { offsetInCU: 0x867B, offset: 0x867B, size: 0x8, addend: 0x0, symName: __ZNSt3__117__libcpp_allocateB8ue170006Emm, symObjAddr: 0xF70, symBinAddr: 0x1000041D8, symSize: 0x28 }
  - { offsetInCU: 0x86B8, offset: 0x86B8, size: 0x8, addend: 0x0, symName: __ZNSt3__121__libcpp_operator_newB8ue170006IJmEEEPvDpT_, symObjAddr: 0xF98, symBinAddr: 0x100004200, symSize: 0x24 }
  - { offsetInCU: 0x86F1, offset: 0x86F1, size: 0x8, addend: 0x0, symName: __ZNSt3__112__to_addressB8ue170006IiEEPT_S2_, symObjAddr: 0x10B4, symBinAddr: 0x10000431C, symSize: 0x14 }
  - { offsetInCU: 0x8726, offset: 0x8726, size: 0x8, addend: 0x0, symName: __ZNSt3__130__uninitialized_allocator_copyB8ue170006INS_9allocatorIiEEPKiS4_PiEET2_RT_T0_T1_S6_, symObjAddr: 0x1164, symBinAddr: 0x1000043CC, symSize: 0x80 }
  - { offsetInCU: 0x87C3, offset: 0x87C3, size: 0x8, addend: 0x0, symName: __ZNSt3__114__unwrap_rangeB8ue170006IPKiS2_EENS_4pairIT0_S4_EET_S6_, symObjAddr: 0x1254, symBinAddr: 0x1000044BC, symSize: 0x60 }
  - { offsetInCU: 0x880F, offset: 0x880F, size: 0x8, addend: 0x0, symName: __ZNSt3__135__uninitialized_allocator_copy_implB8ue170006INS_9allocatorIiEEKiiiLPv0EEEPT2_RT_PT0_SA_S6_, symObjAddr: 0x12B4, symBinAddr: 0x10000451C, symSize: 0x38 }
  - { offsetInCU: 0x8890, offset: 0x8890, size: 0x8, addend: 0x0, symName: __ZNSt3__113__unwrap_iterB8ue170006IPiNS_18__unwrap_iter_implIS1_Lb1EEELi0EEEDTclsrT0_8__unwrapclsr3stdE7declvalIT_EEEES5_, symObjAddr: 0x12EC, symBinAddr: 0x100004554, symSize: 0x24 }
  - { offsetInCU: 0x88D4, offset: 0x88D4, size: 0x8, addend: 0x0, symName: __ZNSt3__113__rewrap_iterB8ue170006IPiS1_NS_18__unwrap_iter_implIS1_Lb1EEEEET_S4_T0_, symObjAddr: 0x1310, symBinAddr: 0x100004578, symSize: 0x3C }
  - { offsetInCU: 0x8929, offset: 0x8929, size: 0x8, addend: 0x0, symName: __ZNSt3__19make_pairB8ue170006IPKiS2_EENS_4pairINS_18__unwrap_ref_decayIT_E4typeENS4_IT0_E4typeEEEOS5_OS8_, symObjAddr: 0x134C, symBinAddr: 0x1000045B4, symSize: 0x38 }
  - { offsetInCU: 0x8978, offset: 0x8978, size: 0x8, addend: 0x0, symName: __ZNSt3__113__unwrap_iterB8ue170006IPKiNS_18__unwrap_iter_implIS2_Lb1EEELi0EEEDTclsrT0_8__unwrapclsr3stdE7declvalIT_EEEES6_, symObjAddr: 0x1384, symBinAddr: 0x1000045EC, symSize: 0x24 }
  - { offsetInCU: 0x8AE3, offset: 0x8AE3, size: 0x8, addend: 0x0, symName: __ZNSt3__112__to_addressB8ue170006IKiEEPT_S3_, symObjAddr: 0x143C, symBinAddr: 0x1000046A4, symSize: 0x14 }
  - { offsetInCU: 0x8B18, offset: 0x8B18, size: 0x8, addend: 0x0, symName: __ZNSt3__14copyB8ue170006IPKiPiEET0_T_S5_S4_, symObjAddr: 0x1450, symBinAddr: 0x1000046B8, symSize: 0x40 }
  - { offsetInCU: 0x8B72, offset: 0x8B72, size: 0x8, addend: 0x0, symName: __ZNSt3__16__copyB8ue170006INS_17_ClassicAlgPolicyEPKiS3_PiEENS_4pairIT0_T2_EES6_T1_S7_, symObjAddr: 0x1490, symBinAddr: 0x1000046F8, symSize: 0x44 }
  - { offsetInCU: 0x8BDE, offset: 0x8BDE, size: 0x8, addend: 0x0, symName: __ZNSt3__123__dispatch_copy_or_moveB8ue170006INS_17_ClassicAlgPolicyENS_11__copy_loopIS1_EENS_14__copy_trivialEPKiS6_PiEENS_4pairIT2_T4_EES9_T3_SA_, symObjAddr: 0x14D4, symBinAddr: 0x10000473C, symSize: 0x44 }
  - { offsetInCU: 0x8C5C, offset: 0x8C5C, size: 0x8, addend: 0x0, symName: __ZNSt3__121__unwrap_and_dispatchB8ue170006INS_10__overloadINS_11__copy_loopINS_17_ClassicAlgPolicyEEENS_14__copy_trivialEEEPKiS8_PiLi0EEENS_4pairIT0_T2_EESB_T1_SC_, symObjAddr: 0x1518, symBinAddr: 0x100004780, symSize: 0xB4 }
  - { offsetInCU: 0x8EAB, offset: 0x8EAB, size: 0x8, addend: 0x0, symName: __ZNSt3__19make_pairB8ue170006IPKiPiEENS_4pairINS_18__unwrap_ref_decayIT_E4typeENS5_IT0_E4typeEEEOS6_OS9_, symObjAddr: 0x1614, symBinAddr: 0x10000487C, symSize: 0x38 }
  - { offsetInCU: 0x8EFA, offset: 0x8EFA, size: 0x8, addend: 0x0, symName: __ZNSt3__114__rewrap_rangeB8ue170006IPKiS2_EET_S3_T0_, symObjAddr: 0x164C, symBinAddr: 0x1000048B4, symSize: 0x2C }
  - { offsetInCU: 0x8F46, offset: 0x8F46, size: 0x8, addend: 0x0, symName: __ZNSt3__119__copy_trivial_implB8ue170006IKiiEENS_4pairIPT_PT0_EES4_S4_S6_, symObjAddr: 0x1678, symBinAddr: 0x1000048E0, symSize: 0x80 }
  - { offsetInCU: 0x8FAE, offset: 0x8FAE, size: 0x8, addend: 0x0, symName: __ZNSt3__119__constexpr_memmoveB8ue170006IiKiLi0EEEPT_S3_PT0_NS_15__element_countE, symObjAddr: 0x16F8, symBinAddr: 0x100004960, symSize: 0x64 }
  - { offsetInCU: 0x901C, offset: 0x901C, size: 0x8, addend: 0x0, symName: __ZNSt3__19make_pairB8ue170006IRPKiPiEENS_4pairINS_18__unwrap_ref_decayIT_E4typeENS6_IT0_E4typeEEEOS7_OSA_, symObjAddr: 0x175C, symBinAddr: 0x1000049C4, symSize: 0x38 }
  - { offsetInCU: 0x906B, offset: 0x906B, size: 0x8, addend: 0x0, symName: __ZNSt3__113__rewrap_iterB8ue170006IPKiS2_NS_18__unwrap_iter_implIS2_Lb1EEEEET_S5_T0_, symObjAddr: 0x1874, symBinAddr: 0x100004ADC, symSize: 0x3C }
  - { offsetInCU: 0x9113, offset: 0x9113, size: 0x8, addend: 0x0, symName: __ZNSt3__119__libcpp_deallocateB8ue170006EPvmm, symObjAddr: 0x1CBC, symBinAddr: 0x100004F24, symSize: 0x30 }
  - { offsetInCU: 0x915B, offset: 0x915B, size: 0x8, addend: 0x0, symName: __ZNSt3__127__do_deallocate_handle_sizeB8ue170006IJEEEvPvmDpT_, symObjAddr: 0x1CEC, symBinAddr: 0x100004F54, symSize: 0x28 }
  - { offsetInCU: 0x9199, offset: 0x9199, size: 0x8, addend: 0x0, symName: __ZNSt3__124__libcpp_operator_deleteB8ue170006IJPvEEEvDpT_, symObjAddr: 0x1D14, symBinAddr: 0x100004F7C, symSize: 0x24 }
  - { offsetInCU: 0x91CE, offset: 0x91CE, size: 0x8, addend: 0x0, symName: __ZNSt3__130__uninitialized_allocator_copyB8ue170006INS_9allocatorIiEEPiS3_S3_EET2_RT_T0_T1_S4_, symObjAddr: 0x1FF8, symBinAddr: 0x100005260, symSize: 0x80 }
  - { offsetInCU: 0x926B, offset: 0x926B, size: 0x8, addend: 0x0, symName: __ZNSt3__114__unwrap_rangeB8ue170006IPiS1_EENS_4pairIT0_S3_EET_S5_, symObjAddr: 0x2078, symBinAddr: 0x1000052E0, symSize: 0x60 }
  - { offsetInCU: 0x92B7, offset: 0x92B7, size: 0x8, addend: 0x0, symName: __ZNSt3__135__uninitialized_allocator_copy_implB8ue170006INS_9allocatorIiEEiiiLPv0EEEPT2_RT_PT0_S9_S5_, symObjAddr: 0x20D8, symBinAddr: 0x100005340, symSize: 0x38 }
  - { offsetInCU: 0x9338, offset: 0x9338, size: 0x8, addend: 0x0, symName: __ZNSt3__19make_pairB8ue170006IPiS1_EENS_4pairINS_18__unwrap_ref_decayIT_E4typeENS3_IT0_E4typeEEEOS4_OS7_, symObjAddr: 0x2110, symBinAddr: 0x100005378, symSize: 0x38 }
  - { offsetInCU: 0x948A, offset: 0x948A, size: 0x8, addend: 0x0, symName: __ZNSt3__14copyB8ue170006IPiS1_EET0_T_S3_S2_, symObjAddr: 0x21B8, symBinAddr: 0x100005420, symSize: 0x40 }
  - { offsetInCU: 0x94E4, offset: 0x94E4, size: 0x8, addend: 0x0, symName: __ZNSt3__16__copyB8ue170006INS_17_ClassicAlgPolicyEPiS2_S2_EENS_4pairIT0_T2_EES4_T1_S5_, symObjAddr: 0x21F8, symBinAddr: 0x100005460, symSize: 0x44 }
  - { offsetInCU: 0x9550, offset: 0x9550, size: 0x8, addend: 0x0, symName: __ZNSt3__123__dispatch_copy_or_moveB8ue170006INS_17_ClassicAlgPolicyENS_11__copy_loopIS1_EENS_14__copy_trivialEPiS5_S5_EENS_4pairIT2_T4_EES7_T3_S8_, symObjAddr: 0x223C, symBinAddr: 0x1000054A4, symSize: 0x44 }
  - { offsetInCU: 0x95CE, offset: 0x95CE, size: 0x8, addend: 0x0, symName: __ZNSt3__121__unwrap_and_dispatchB8ue170006INS_10__overloadINS_11__copy_loopINS_17_ClassicAlgPolicyEEENS_14__copy_trivialEEEPiS7_S7_Li0EEENS_4pairIT0_T2_EES9_T1_SA_, symObjAddr: 0x2280, symBinAddr: 0x1000054E8, symSize: 0xB4 }
  - { offsetInCU: 0x965C, offset: 0x965C, size: 0x8, addend: 0x0, symName: __ZNSt3__114__rewrap_rangeB8ue170006IPiS1_EET_S2_T0_, symObjAddr: 0x237C, symBinAddr: 0x1000055E4, symSize: 0x2C }
  - { offsetInCU: 0x96A8, offset: 0x96A8, size: 0x8, addend: 0x0, symName: __ZNSt3__119__copy_trivial_implB8ue170006IiiEENS_4pairIPT_PT0_EES3_S3_S5_, symObjAddr: 0x23A8, symBinAddr: 0x100005610, symSize: 0x80 }
  - { offsetInCU: 0x9710, offset: 0x9710, size: 0x8, addend: 0x0, symName: __ZNSt3__119__constexpr_memmoveB8ue170006IiiLi0EEEPT_S2_PT0_NS_15__element_countE, symObjAddr: 0x2428, symBinAddr: 0x100005690, symSize: 0x64 }
  - { offsetInCU: 0x977E, offset: 0x977E, size: 0x8, addend: 0x0, symName: __ZNSt3__19make_pairB8ue170006IRPiS1_EENS_4pairINS_18__unwrap_ref_decayIT_E4typeENS4_IT0_E4typeEEEOS5_OS8_, symObjAddr: 0x248C, symBinAddr: 0x1000056F4, symSize: 0x38 }
  - { offsetInCU: 0x97CD, offset: 0x97CD, size: 0x8, addend: 0x0, symName: __ZNSt3__112__to_addressB8ue170006IfEEPT_S2_, symObjAddr: 0x32C8, symBinAddr: 0x100006530, symSize: 0x14 }
  - { offsetInCU: 0x9802, offset: 0x9802, size: 0x8, addend: 0x0, symName: __ZNSt3__13maxB8ue170006ImEERKT_S3_S3_, symObjAddr: 0x3480, symBinAddr: 0x1000066E8, symSize: 0x2C }
  - { offsetInCU: 0x9845, offset: 0x9845, size: 0x8, addend: 0x0, symName: __ZNSt3__13maxB8ue170006ImNS_6__lessIvvEEEERKT_S5_S5_T0_, symObjAddr: 0x35A4, symBinAddr: 0x10000680C, symSize: 0x54 }
  - { offsetInCU: 0x989F, offset: 0x989F, size: 0x8, addend: 0x0, symName: __ZNSt3__119__allocate_at_leastB8ue170006INS_9allocatorIfEEEENS_19__allocation_resultINS_16allocator_traitsIT_E7pointerEEERS5_m, symObjAddr: 0x3708, symBinAddr: 0x100006970, symSize: 0x40 }
  - { offsetInCU: 0x98E2, offset: 0x98E2, size: 0x8, addend: 0x0, symName: __ZNSt3__142__uninitialized_allocator_move_if_noexceptB8ue170006INS_9allocatorIfEENS_16reverse_iteratorIPfEES5_fvEET1_RT_T0_S9_S6_, symObjAddr: 0x3A40, symBinAddr: 0x100006CA8, symSize: 0x78 }
  - { offsetInCU: 0x995F, offset: 0x995F, size: 0x8, addend: 0x0, symName: __ZNSt3__14swapB8ue170006IPfEENS_9enable_ifIXaasr21is_move_constructibleIT_EE5valuesr18is_move_assignableIS3_EE5valueEvE4typeERS3_S6_, symObjAddr: 0x3B04, symBinAddr: 0x100006D6C, symSize: 0x3C }
  - { offsetInCU: 0x99B0, offset: 0x99B0, size: 0x8, addend: 0x0, symName: __ZNSt3__14moveB8ue170006INS_16reverse_iteratorIPfEES3_EET0_T_S5_S4_, symObjAddr: 0x3C34, symBinAddr: 0x100006E9C, symSize: 0x78 }
  - { offsetInCU: 0x9A0A, offset: 0x9A0A, size: 0x8, addend: 0x0, symName: __ZNSt3__16__moveB8ue170006INS_17_ClassicAlgPolicyENS_16reverse_iteratorIPfEES4_S4_EENS_4pairIT0_T2_EES6_T1_S7_, symObjAddr: 0x3CAC, symBinAddr: 0x100006F14, symSize: 0x64 }
  - { offsetInCU: 0x9A76, offset: 0x9A76, size: 0x8, addend: 0x0, symName: __ZNSt3__123__dispatch_copy_or_moveB8ue170006INS_17_ClassicAlgPolicyENS_11__move_loopIS1_EENS_14__move_trivialENS_16reverse_iteratorIPfEES7_S7_EENS_4pairIT2_T4_EES9_T3_SA_, symObjAddr: 0x3D10, symBinAddr: 0x100006F78, symSize: 0x64 }
  - { offsetInCU: 0x9AF4, offset: 0x9AF4, size: 0x8, addend: 0x0, symName: __ZNSt3__121__unwrap_and_dispatchB8ue170006INS_10__overloadINS_11__move_loopINS_17_ClassicAlgPolicyEEENS_14__move_trivialEEENS_16reverse_iteratorIPfEES9_S9_Li0EEENS_4pairIT0_T2_EESB_T1_SC_, symObjAddr: 0x3D74, symBinAddr: 0x100006FDC, symSize: 0x12C }
  - { offsetInCU: 0x9B84, offset: 0x9B84, size: 0x8, addend: 0x0, symName: __ZNSt3__114__unwrap_rangeB8ue170006INS_16reverse_iteratorIPfEES3_EENS_4pairIT0_S5_EET_S7_, symObjAddr: 0x3EA0, symBinAddr: 0x100007108, symSize: 0x84 }
  - { offsetInCU: 0x9D3E, offset: 0x9D3E, size: 0x8, addend: 0x0, symName: __ZNSt3__113__unwrap_iterB8ue170006INS_16reverse_iteratorIPfEENS_18__unwrap_iter_implIS3_Lb0EEELi0EEEDTclsrT0_8__unwrapclsr3stdE7declvalIT_EEEES7_, symObjAddr: 0x3FC4, symBinAddr: 0x10000722C, symSize: 0x44 }
  - { offsetInCU: 0x9D82, offset: 0x9D82, size: 0x8, addend: 0x0, symName: __ZNSt3__19make_pairB8ue170006INS_16reverse_iteratorIPfEES3_EENS_4pairINS_18__unwrap_ref_decayIT_E4typeENS5_IT0_E4typeEEEOS6_OS9_, symObjAddr: 0x4008, symBinAddr: 0x100007270, symSize: 0x38 }
  - { offsetInCU: 0x9DD1, offset: 0x9DD1, size: 0x8, addend: 0x0, symName: __ZNSt3__114__rewrap_rangeB8ue170006INS_16reverse_iteratorIPfEES3_EET_S4_T0_, symObjAddr: 0x4040, symBinAddr: 0x1000072A8, symSize: 0x5C }
  - { offsetInCU: 0x9E1D, offset: 0x9E1D, size: 0x8, addend: 0x0, symName: __ZNSt3__113__rewrap_iterB8ue170006INS_16reverse_iteratorIPfEES3_NS_18__unwrap_iter_implIS3_Lb0EEEEET_S6_T0_, symObjAddr: 0x409C, symBinAddr: 0x100007304, symSize: 0x74 }
  - { offsetInCU: 0x9E72, offset: 0x9E72, size: 0x8, addend: 0x0, symName: __ZNSt3__1neB8ue170006IPfS1_EEbRKNS_16reverse_iteratorIT_EERKNS2_IT0_EE, symObjAddr: 0x4110, symBinAddr: 0x100007378, symSize: 0x48 }
  - { offsetInCU: 0x9FA3, offset: 0x9FA3, size: 0x8, addend: 0x0, symName: __ZNSt3__142__uninitialized_allocator_move_if_noexceptB8ue170006INS_9allocatorIiEENS_16reverse_iteratorIPiEES5_ivEET1_RT_T0_S9_S6_, symObjAddr: 0x4FB4, symBinAddr: 0x10000821C, symSize: 0x78 }
  - { offsetInCU: 0xA020, offset: 0xA020, size: 0x8, addend: 0x0, symName: __ZNSt3__14swapB8ue170006IPiEENS_9enable_ifIXaasr21is_move_constructibleIT_EE5valuesr18is_move_assignableIS3_EE5valueEvE4typeERS3_S6_, symObjAddr: 0x5078, symBinAddr: 0x1000082E0, symSize: 0x3C }
  - { offsetInCU: 0xA071, offset: 0xA071, size: 0x8, addend: 0x0, symName: __ZNSt3__14moveB8ue170006INS_16reverse_iteratorIPiEES3_EET0_T_S5_S4_, symObjAddr: 0x50B4, symBinAddr: 0x10000831C, symSize: 0x78 }
  - { offsetInCU: 0xA0CB, offset: 0xA0CB, size: 0x8, addend: 0x0, symName: __ZNSt3__16__moveB8ue170006INS_17_ClassicAlgPolicyENS_16reverse_iteratorIPiEES4_S4_EENS_4pairIT0_T2_EES6_T1_S7_, symObjAddr: 0x512C, symBinAddr: 0x100008394, symSize: 0x64 }
  - { offsetInCU: 0xA137, offset: 0xA137, size: 0x8, addend: 0x0, symName: __ZNSt3__123__dispatch_copy_or_moveB8ue170006INS_17_ClassicAlgPolicyENS_11__move_loopIS1_EENS_14__move_trivialENS_16reverse_iteratorIPiEES7_S7_EENS_4pairIT2_T4_EES9_T3_SA_, symObjAddr: 0x5190, symBinAddr: 0x1000083F8, symSize: 0x64 }
  - { offsetInCU: 0xA1B5, offset: 0xA1B5, size: 0x8, addend: 0x0, symName: __ZNSt3__121__unwrap_and_dispatchB8ue170006INS_10__overloadINS_11__move_loopINS_17_ClassicAlgPolicyEEENS_14__move_trivialEEENS_16reverse_iteratorIPiEES9_S9_Li0EEENS_4pairIT0_T2_EESB_T1_SC_, symObjAddr: 0x51F4, symBinAddr: 0x10000845C, symSize: 0x12C }
  - { offsetInCU: 0xA245, offset: 0xA245, size: 0x8, addend: 0x0, symName: __ZNSt3__114__unwrap_rangeB8ue170006INS_16reverse_iteratorIPiEES3_EENS_4pairIT0_S5_EET_S7_, symObjAddr: 0x5320, symBinAddr: 0x100008588, symSize: 0x84 }
  - { offsetInCU: 0xA365, offset: 0xA365, size: 0x8, addend: 0x0, symName: __ZNSt3__113__unwrap_iterB8ue170006INS_16reverse_iteratorIPiEENS_18__unwrap_iter_implIS3_Lb0EEELi0EEEDTclsrT0_8__unwrapclsr3stdE7declvalIT_EEEES7_, symObjAddr: 0x5444, symBinAddr: 0x1000086AC, symSize: 0x44 }
  - { offsetInCU: 0xA3A9, offset: 0xA3A9, size: 0x8, addend: 0x0, symName: __ZNSt3__19make_pairB8ue170006INS_16reverse_iteratorIPiEES3_EENS_4pairINS_18__unwrap_ref_decayIT_E4typeENS5_IT0_E4typeEEEOS6_OS9_, symObjAddr: 0x5488, symBinAddr: 0x1000086F0, symSize: 0x38 }
  - { offsetInCU: 0xA3F8, offset: 0xA3F8, size: 0x8, addend: 0x0, symName: __ZNSt3__114__rewrap_rangeB8ue170006INS_16reverse_iteratorIPiEES3_EET_S4_T0_, symObjAddr: 0x54C0, symBinAddr: 0x100008728, symSize: 0x5C }
  - { offsetInCU: 0xA444, offset: 0xA444, size: 0x8, addend: 0x0, symName: __ZNSt3__113__rewrap_iterB8ue170006INS_16reverse_iteratorIPiEES3_NS_18__unwrap_iter_implIS3_Lb0EEEEET_S6_T0_, symObjAddr: 0x551C, symBinAddr: 0x100008784, symSize: 0x74 }
  - { offsetInCU: 0xA499, offset: 0xA499, size: 0x8, addend: 0x0, symName: __ZNSt3__1neB8ue170006IPiS1_EEbRKNS_16reverse_iteratorIT_EERKNS2_IT0_EE, symObjAddr: 0x5590, symBinAddr: 0x1000087F8, symSize: 0x48 }
  - { offsetInCU: 0xA551, offset: 0xA551, size: 0x8, addend: 0x0, symName: __ZNSt3__1lsB8ue170006INS_11char_traitsIcEEEERNS_13basic_ostreamIcT_EES6_PKc, symObjAddr: 0x5D40, symBinAddr: 0x100008FA8, symSize: 0x48 }
  - { offsetInCU: 0xA597, offset: 0xA597, size: 0x8, addend: 0x0, symName: __ZNSt3__14endlB8ue170006IcNS_11char_traitsIcEEEERNS_13basic_ostreamIT_T0_EES7_, symObjAddr: 0x5DB4, symBinAddr: 0x10000901C, symSize: 0x58 }
  - { offsetInCU: 0xA86B, offset: 0xA86B, size: 0x8, addend: 0x0, symName: __ZNSt3__118__constexpr_strlenB8ue170006EPKc, symObjAddr: 0x60F0, symBinAddr: 0x100009358, symSize: 0x24 }
  - { offsetInCU: 0xA8BB, offset: 0xA8BB, size: 0x8, addend: 0x0, symName: __ZNSt3__118generate_canonicalB8ue170006IfLm24ENS_23mersenne_twister_engineIjLm32ELm624ELm397ELm31ELj2567483615ELm11ELj4294967295ELm7ELj2636928640ELm15ELj4022730752ELm18ELj1812433253EEEEET_RT1_, symObjAddr: 0x6364, symBinAddr: 0x1000095CC, symSize: 0x118 }
  - { offsetInCU: 0xA981, offset: 0xA981, size: 0x8, addend: 0x0, symName: __ZNSt3__116__pad_and_outputB8ue170006IcNS_11char_traitsIcEEEENS_19ostreambuf_iteratorIT_T0_EES6_PKS4_S8_S8_RNS_8ios_baseES4_, symObjAddr: 0x6860, symBinAddr: 0x100009AC8, symSize: 0x240 }
  - { offsetInCU: 0xAA50, offset: 0xAA50, size: 0x8, addend: 0x0, symName: __ZNSt3__112__to_addressB8ue170006IKcEEPT_S3_, symObjAddr: 0x6CD0, symBinAddr: 0x100009F38, symSize: 0x14 }
  - { offsetInCU: 0xAAB8, offset: 0xAAB8, size: 0x8, addend: 0x0, symName: __ZNSt3__19use_facetB8ue170006INS_5ctypeIcEEEERKT_RKNS_6localeE, symObjAddr: 0x6F50, symBinAddr: 0x10000A1B8, symSize: 0x2C }
  - { offsetInCU: 0xAF85, offset: 0xAF85, size: 0x8, addend: 0x0, symName: __ZNSt3__122__make_exception_guardB8ue170006INS_6vectorIfNS_9allocatorIfEEE16__destroy_vectorEEENS_28__exception_guard_exceptionsIT_EES7_, symObjAddr: 0x77D8, symBinAddr: 0x10000AA40, symSize: 0x40 }
  - { offsetInCU: 0xAFBA, offset: 0xAFBA, size: 0x8, addend: 0x0, symName: __ZNSt3__130__uninitialized_allocator_copyB8ue170006INS_9allocatorIfEEPfS3_S3_EET2_RT_T0_T1_S4_, symObjAddr: 0x79F0, symBinAddr: 0x10000AC58, symSize: 0x80 }
  - { offsetInCU: 0xB057, offset: 0xB057, size: 0x8, addend: 0x0, symName: __ZNSt3__114__unwrap_rangeB8ue170006IPfS1_EENS_4pairIT0_S3_EET_S5_, symObjAddr: 0x7A70, symBinAddr: 0x10000ACD8, symSize: 0x60 }
  - { offsetInCU: 0xB0A3, offset: 0xB0A3, size: 0x8, addend: 0x0, symName: __ZNSt3__135__uninitialized_allocator_copy_implB8ue170006INS_9allocatorIfEEfffLPv0EEEPT2_RT_PT0_S9_S5_, symObjAddr: 0x7AD0, symBinAddr: 0x10000AD38, symSize: 0x38 }
  - { offsetInCU: 0xB124, offset: 0xB124, size: 0x8, addend: 0x0, symName: __ZNSt3__113__unwrap_iterB8ue170006IPfNS_18__unwrap_iter_implIS1_Lb1EEELi0EEEDTclsrT0_8__unwrapclsr3stdE7declvalIT_EEEES5_, symObjAddr: 0x7B08, symBinAddr: 0x10000AD70, symSize: 0x24 }
  - { offsetInCU: 0xB168, offset: 0xB168, size: 0x8, addend: 0x0, symName: __ZNSt3__113__rewrap_iterB8ue170006IPfS1_NS_18__unwrap_iter_implIS1_Lb1EEEEET_S4_T0_, symObjAddr: 0x7B2C, symBinAddr: 0x10000AD94, symSize: 0x3C }
  - { offsetInCU: 0xB1BD, offset: 0xB1BD, size: 0x8, addend: 0x0, symName: __ZNSt3__19make_pairB8ue170006IPfS1_EENS_4pairINS_18__unwrap_ref_decayIT_E4typeENS3_IT0_E4typeEEEOS4_OS7_, symObjAddr: 0x7B68, symBinAddr: 0x10000ADD0, symSize: 0x38 }
  - { offsetInCU: 0xB30F, offset: 0xB30F, size: 0x8, addend: 0x0, symName: __ZNSt3__14copyB8ue170006IPfS1_EET0_T_S3_S2_, symObjAddr: 0x7C10, symBinAddr: 0x10000AE78, symSize: 0x40 }
  - { offsetInCU: 0xB369, offset: 0xB369, size: 0x8, addend: 0x0, symName: __ZNSt3__16__copyB8ue170006INS_17_ClassicAlgPolicyEPfS2_S2_EENS_4pairIT0_T2_EES4_T1_S5_, symObjAddr: 0x7C50, symBinAddr: 0x10000AEB8, symSize: 0x44 }
  - { offsetInCU: 0xB3D5, offset: 0xB3D5, size: 0x8, addend: 0x0, symName: __ZNSt3__123__dispatch_copy_or_moveB8ue170006INS_17_ClassicAlgPolicyENS_11__copy_loopIS1_EENS_14__copy_trivialEPfS5_S5_EENS_4pairIT2_T4_EES7_T3_S8_, symObjAddr: 0x7C94, symBinAddr: 0x10000AEFC, symSize: 0x44 }
  - { offsetInCU: 0xB453, offset: 0xB453, size: 0x8, addend: 0x0, symName: __ZNSt3__121__unwrap_and_dispatchB8ue170006INS_10__overloadINS_11__copy_loopINS_17_ClassicAlgPolicyEEENS_14__copy_trivialEEEPfS7_S7_Li0EEENS_4pairIT0_T2_EES9_T1_SA_, symObjAddr: 0x7CD8, symBinAddr: 0x10000AF40, symSize: 0xB4 }
  - { offsetInCU: 0xB4E1, offset: 0xB4E1, size: 0x8, addend: 0x0, symName: __ZNSt3__114__rewrap_rangeB8ue170006IPfS1_EET_S2_T0_, symObjAddr: 0x7DD4, symBinAddr: 0x10000B03C, symSize: 0x2C }
  - { offsetInCU: 0xB52D, offset: 0xB52D, size: 0x8, addend: 0x0, symName: __ZNSt3__119__copy_trivial_implB8ue170006IffEENS_4pairIPT_PT0_EES3_S3_S5_, symObjAddr: 0x7E00, symBinAddr: 0x10000B068, symSize: 0x80 }
  - { offsetInCU: 0xB595, offset: 0xB595, size: 0x8, addend: 0x0, symName: __ZNSt3__119__constexpr_memmoveB8ue170006IffLi0EEEPT_S2_PT0_NS_15__element_countE, symObjAddr: 0x7E80, symBinAddr: 0x10000B0E8, symSize: 0x64 }
  - { offsetInCU: 0xB603, offset: 0xB603, size: 0x8, addend: 0x0, symName: __ZNSt3__19make_pairB8ue170006IRPfS1_EENS_4pairINS_18__unwrap_ref_decayIT_E4typeENS4_IT0_E4typeEEEOS5_OS8_, symObjAddr: 0x7EE4, symBinAddr: 0x10000B14C, symSize: 0x38 }
  - { offsetInCU: 0xBAD6, offset: 0xBAD6, size: 0x8, addend: 0x0, symName: __ZSt28__throw_bad_array_new_lengthB8ue170006v, symObjAddr: 0xF3C, symBinAddr: 0x1000041A4, symSize: 0x34 }
  - { offsetInCU: 0xC118, offset: 0xC118, size: 0x8, addend: 0x0, symName: __ZNSt3__16vectorIfNS_9allocatorIfEEE26__swap_out_circular_bufferERNS_14__split_bufferIfRS2_EE, symObjAddr: 0x30EC, symBinAddr: 0x100006354, symSize: 0x110 }
  - { offsetInCU: 0xC16D, offset: 0xC16D, size: 0x8, addend: 0x0, symName: __ZNSt3__16vectorIiNS_9allocatorIiEEE26__swap_out_circular_bufferERNS_14__split_bufferIiRS2_EE, symObjAddr: 0x4B38, symBinAddr: 0x100007DA0, symSize: 0x110 }
  - { offsetInCU: 0xE611, offset: 0xE611, size: 0x8, addend: 0x0, symName: _main, symObjAddr: 0x0, symBinAddr: 0x100003268, symSize: 0x160 }
  - { offsetInCU: 0xE648, offset: 0xE648, size: 0x8, addend: 0x0, symName: __ZNSt3__16vectorIiNS_9allocatorIiEEEC1B8ue170006ESt16initializer_listIiE, symObjAddr: 0x160, symBinAddr: 0x1000033C8, symSize: 0x3C }
  - { offsetInCU: 0xE682, offset: 0xE682, size: 0x8, addend: 0x0, symName: __ZNSt3__16vectorIiNS_9allocatorIiEEEC1ERKS3_, symObjAddr: 0x19C, symBinAddr: 0x100003404, symSize: 0x34 }
  - { offsetInCU: 0xE95A, offset: 0xE95A, size: 0x8, addend: 0x0, symName: __ZN6TensorIfEC1ENSt3__16vectorIiNS1_9allocatorIiEEEE, symObjAddr: 0x1D0, symBinAddr: 0x100003438, symSize: 0x34 }
  - { offsetInCU: 0xE992, offset: 0xE992, size: 0x8, addend: 0x0, symName: __ZNSt3__16vectorIiNS_9allocatorIiEEED1B8ue170006Ev, symObjAddr: 0x204, symBinAddr: 0x10000346C, symSize: 0x2C }
  - { offsetInCU: 0xE9BB, offset: 0xE9BB, size: 0x8, addend: 0x0, symName: __ZN6TensorIfE16randomize_tensorEff, symObjAddr: 0x230, symBinAddr: 0x100003498, symSize: 0xA8 }
  - { offsetInCU: 0xE9FC, offset: 0xE9FC, size: 0x8, addend: 0x0, symName: __ZN6TensorIfE12print_tensorEv, symObjAddr: 0x2D8, symBinAddr: 0x100003540, symSize: 0x198 }
  - { offsetInCU: 0xEA35, offset: 0xEA35, size: 0x8, addend: 0x0, symName: __ZN6TensorIfE15tensorAddScalarEf, symObjAddr: 0x470, symBinAddr: 0x1000036D8, symSize: 0x158 }
  - { offsetInCU: 0xEAA0, offset: 0xEAA0, size: 0x8, addend: 0x0, symName: __ZN6TensorIfED1Ev, symObjAddr: 0x5C8, symBinAddr: 0x100003830, symSize: 0x2C }
  - { offsetInCU: 0xEAC9, offset: 0xEAC9, size: 0x8, addend: 0x0, symName: __ZNSt3__16vectorIiNS_9allocatorIiEEEC2B8ue170006ESt16initializer_listIiE, symObjAddr: 0x5F4, symBinAddr: 0x10000385C, symSize: 0x120 }
  - { offsetInCU: 0xEB22, offset: 0xEB22, size: 0x8, addend: 0x0, symName: __ZNSt3__117__compressed_pairIPiNS_9allocatorIiEEEC1B8ue170006IDnNS_18__default_init_tagEEEOT_OT0_, symObjAddr: 0x714, symBinAddr: 0x10000397C, symSize: 0x3C }
  - { offsetInCU: 0xEB79, offset: 0xEB79, size: 0x8, addend: 0x0, symName: __ZNSt3__16vectorIiNS_9allocatorIiEEE16__destroy_vectorC1B8ue170006ERS3_, symObjAddr: 0x790, symBinAddr: 0x1000039F8, symSize: 0x34 }
  - { offsetInCU: 0xEBB1, offset: 0xEBB1, size: 0x8, addend: 0x0, symName: __ZNKSt16initializer_listIiE4sizeB8ue170006Ev, symObjAddr: 0x7C4, symBinAddr: 0x100003A2C, symSize: 0x18 }
  - { offsetInCU: 0xEBD6, offset: 0xEBD6, size: 0x8, addend: 0x0, symName: __ZNSt3__16vectorIiNS_9allocatorIiEEE11__vallocateB8ue170006Em, symObjAddr: 0x7DC, symBinAddr: 0x100003A44, symSize: 0xAC }
  - { offsetInCU: 0xEC18, offset: 0xEC18, size: 0x8, addend: 0x0, symName: __ZNSt3__16vectorIiNS_9allocatorIiEEE18__construct_at_endIPKiS6_EEvT_T0_m, symObjAddr: 0x888, symBinAddr: 0x100003AF0, symSize: 0x8C }
  - { offsetInCU: 0xEC8D, offset: 0xEC8D, size: 0x8, addend: 0x0, symName: __ZNKSt16initializer_listIiE5beginB8ue170006Ev, symObjAddr: 0x914, symBinAddr: 0x100003B7C, symSize: 0x18 }
  - { offsetInCU: 0xECB2, offset: 0xECB2, size: 0x8, addend: 0x0, symName: __ZNKSt16initializer_listIiE3endB8ue170006Ev, symObjAddr: 0x92C, symBinAddr: 0x100003B94, symSize: 0x20 }
  - { offsetInCU: 0xECD7, offset: 0xECD7, size: 0x8, addend: 0x0, symName: __ZNSt3__128__exception_guard_exceptionsINS_6vectorIiNS_9allocatorIiEEE16__destroy_vectorEE10__completeB8ue170006Ev, symObjAddr: 0x94C, symBinAddr: 0x100003BB4, symSize: 0x1C }
  - { offsetInCU: 0xECFC, offset: 0xECFC, size: 0x8, addend: 0x0, symName: __ZNSt3__128__exception_guard_exceptionsINS_6vectorIiNS_9allocatorIiEEE16__destroy_vectorEED1B8ue170006Ev, symObjAddr: 0x968, symBinAddr: 0x100003BD0, symSize: 0x2C }
  - { offsetInCU: 0xED25, offset: 0xED25, size: 0x8, addend: 0x0, symName: __ZNSt3__117__compressed_pairIPiNS_9allocatorIiEEEC2B8ue170006IDnNS_18__default_init_tagEEEOT_OT0_, symObjAddr: 0x994, symBinAddr: 0x100003BFC, symSize: 0x40 }
  - { offsetInCU: 0xED7C, offset: 0xED7C, size: 0x8, addend: 0x0, symName: __ZNSt3__122__compressed_pair_elemIPiLi0ELb0EEC2B8ue170006IDnvEEOT_, symObjAddr: 0x9D4, symBinAddr: 0x100003C3C, symSize: 0x1C }
  - { offsetInCU: 0xEDBD, offset: 0xEDBD, size: 0x8, addend: 0x0, symName: __ZNSt3__122__compressed_pair_elemINS_9allocatorIiEELi1ELb1EEC2B8ue170006ENS_18__default_init_tagE, symObjAddr: 0x9F0, symBinAddr: 0x100003C58, symSize: 0x2C }
  - { offsetInCU: 0xEDF1, offset: 0xEDF1, size: 0x8, addend: 0x0, symName: __ZNSt3__19allocatorIiEC2B8ue170006Ev, symObjAddr: 0xA1C, symBinAddr: 0x100003C84, symSize: 0x2C }
  - { offsetInCU: 0xEE1A, offset: 0xEE1A, size: 0x8, addend: 0x0, symName: __ZNSt3__116__non_trivial_ifILb1ENS_9allocatorIiEEEC2B8ue170006Ev, symObjAddr: 0xA48, symBinAddr: 0x100003CB0, symSize: 0x14 }
  - { offsetInCU: 0xEE43, offset: 0xEE43, size: 0x8, addend: 0x0, symName: __ZNSt3__128__exception_guard_exceptionsINS_6vectorIiNS_9allocatorIiEEE16__destroy_vectorEEC1B8ue170006ES5_, symObjAddr: 0xA5C, symBinAddr: 0x100003CC4, symSize: 0x34 }
  - { offsetInCU: 0xEE7A, offset: 0xEE7A, size: 0x8, addend: 0x0, symName: __ZNSt3__128__exception_guard_exceptionsINS_6vectorIiNS_9allocatorIiEEE16__destroy_vectorEEC2B8ue170006ES5_, symObjAddr: 0xA90, symBinAddr: 0x100003CF8, symSize: 0x24 }
  - { offsetInCU: 0xEEB1, offset: 0xEEB1, size: 0x8, addend: 0x0, symName: __ZNSt3__16vectorIiNS_9allocatorIiEEE16__destroy_vectorC2B8ue170006ERS3_, symObjAddr: 0xAB4, symBinAddr: 0x100003D1C, symSize: 0x20 }
  - { offsetInCU: 0xEEE8, offset: 0xEEE8, size: 0x8, addend: 0x0, symName: __ZNKSt3__16vectorIiNS_9allocatorIiEEE8max_sizeEv, symObjAddr: 0xAD4, symBinAddr: 0x100003D3C, symSize: 0x60 }
  - { offsetInCU: 0xEF0F, offset: 0xEF0F, size: 0x8, addend: 0x0, symName: __ZNKSt3__16vectorIiNS_9allocatorIiEEE20__throw_length_errorB8ue170006Ev, symObjAddr: 0xB34, symBinAddr: 0x100003D9C, symSize: 0x1C }
  - { offsetInCU: 0xEF34, offset: 0xEF34, size: 0x8, addend: 0x0, symName: __ZNSt3__16vectorIiNS_9allocatorIiEEE7__allocB8ue170006Ev, symObjAddr: 0xB90, symBinAddr: 0x100003DF8, symSize: 0x28 }
  - { offsetInCU: 0xEF59, offset: 0xEF59, size: 0x8, addend: 0x0, symName: __ZNSt3__16vectorIiNS_9allocatorIiEEE9__end_capB8ue170006Ev, symObjAddr: 0xBB8, symBinAddr: 0x100003E20, symSize: 0x28 }
  - { offsetInCU: 0xEF7E, offset: 0xEF7E, size: 0x8, addend: 0x0, symName: __ZNKSt3__16vectorIiNS_9allocatorIiEEE14__annotate_newB8ue170006Em, symObjAddr: 0xBE0, symBinAddr: 0x100003E48, symSize: 0xAC }
  - { offsetInCU: 0xEFBC, offset: 0xEFBC, size: 0x8, addend: 0x0, symName: __ZNSt3__116allocator_traitsINS_9allocatorIiEEE8max_sizeB8ue170006IS2_vEEmRKS2_, symObjAddr: 0xCB8, symBinAddr: 0x100003F20, symSize: 0x24 }
  - { offsetInCU: 0xEFEA, offset: 0xEFEA, size: 0x8, addend: 0x0, symName: __ZNKSt3__16vectorIiNS_9allocatorIiEEE7__allocB8ue170006Ev, symObjAddr: 0xCDC, symBinAddr: 0x100003F44, symSize: 0x28 }
  - { offsetInCU: 0xF00F, offset: 0xF00F, size: 0x8, addend: 0x0, symName: __ZNSt3__114numeric_limitsIlE3maxB8ue170006Ev, symObjAddr: 0xD04, symBinAddr: 0x100003F6C, symSize: 0x14 }
  - { offsetInCU: 0xF037, offset: 0xF037, size: 0x8, addend: 0x0, symName: __ZNKSt3__16__lessIvvEclB8ue170006ImmEEbRKT_RKT0_, symObjAddr: 0xD78, symBinAddr: 0x100003FE0, symSize: 0x34 }
  - { offsetInCU: 0xF08A, offset: 0xF08A, size: 0x8, addend: 0x0, symName: __ZNKSt3__19allocatorIiE8max_sizeB8ue170006Ev, symObjAddr: 0xDAC, symBinAddr: 0x100004014, symSize: 0x14 }
  - { offsetInCU: 0xF0AF, offset: 0xF0AF, size: 0x8, addend: 0x0, symName: __ZNKSt3__117__compressed_pairIPiNS_9allocatorIiEEE6secondB8ue170006Ev, symObjAddr: 0xDC0, symBinAddr: 0x100004028, symSize: 0x24 }
  - { offsetInCU: 0xF0D4, offset: 0xF0D4, size: 0x8, addend: 0x0, symName: __ZNKSt3__122__compressed_pair_elemINS_9allocatorIiEELi1ELb1EE5__getB8ue170006Ev, symObjAddr: 0xDE4, symBinAddr: 0x10000404C, symSize: 0x14 }
  - { offsetInCU: 0xF0F9, offset: 0xF0F9, size: 0x8, addend: 0x0, symName: __ZNSt3__123__libcpp_numeric_limitsIlLb1EE3maxB8ue170006Ev, symObjAddr: 0xDF8, symBinAddr: 0x100004060, symSize: 0x8 }
  - { offsetInCU: 0xF10D, offset: 0xF10D, size: 0x8, addend: 0x0, symName: __ZNSt12length_errorC1B8ue170006EPKc, symObjAddr: 0xE64, symBinAddr: 0x1000040CC, symSize: 0x34 }
  - { offsetInCU: 0xF144, offset: 0xF144, size: 0x8, addend: 0x0, symName: __ZNSt12length_errorC2B8ue170006EPKc, symObjAddr: 0xE98, symBinAddr: 0x100004100, symSize: 0x4C }
  - { offsetInCU: 0xF17B, offset: 0xF17B, size: 0x8, addend: 0x0, symName: __ZNSt3__19allocatorIiE8allocateB8ue170006Em, symObjAddr: 0xEE4, symBinAddr: 0x10000414C, symSize: 0x58 }
  - { offsetInCU: 0xF1AE, offset: 0xF1AE, size: 0x8, addend: 0x0, symName: __ZNSt3__117__compressed_pairIPiNS_9allocatorIiEEE6secondB8ue170006Ev, symObjAddr: 0xFBC, symBinAddr: 0x100004224, symSize: 0x24 }
  - { offsetInCU: 0xF1D3, offset: 0xF1D3, size: 0x8, addend: 0x0, symName: __ZNSt3__122__compressed_pair_elemINS_9allocatorIiEELi1ELb1EE5__getB8ue170006Ev, symObjAddr: 0xFE0, symBinAddr: 0x100004248, symSize: 0x14 }
  - { offsetInCU: 0xF1F8, offset: 0xF1F8, size: 0x8, addend: 0x0, symName: __ZNSt3__117__compressed_pairIPiNS_9allocatorIiEEE5firstB8ue170006Ev, symObjAddr: 0xFF4, symBinAddr: 0x10000425C, symSize: 0x24 }
  - { offsetInCU: 0xF21D, offset: 0xF21D, size: 0x8, addend: 0x0, symName: __ZNSt3__122__compressed_pair_elemIPiLi0ELb0EE5__getB8ue170006Ev, symObjAddr: 0x1018, symBinAddr: 0x100004280, symSize: 0x14 }
  - { offsetInCU: 0xF242, offset: 0xF242, size: 0x8, addend: 0x0, symName: __ZNKSt3__16vectorIiNS_9allocatorIiEEE31__annotate_contiguous_containerB8ue170006EPKvS5_S5_S5_, symObjAddr: 0x102C, symBinAddr: 0x100004294, symSize: 0x20 }
  - { offsetInCU: 0xF293, offset: 0xF293, size: 0x8, addend: 0x0, symName: __ZNKSt3__16vectorIiNS_9allocatorIiEEE4dataB8ue170006Ev, symObjAddr: 0x104C, symBinAddr: 0x1000042B4, symSize: 0x28 }
  - { offsetInCU: 0xF2B8, offset: 0xF2B8, size: 0x8, addend: 0x0, symName: __ZNKSt3__16vectorIiNS_9allocatorIiEEE8capacityB8ue170006Ev, symObjAddr: 0x1074, symBinAddr: 0x1000042DC, symSize: 0x40 }
  - { offsetInCU: 0xF2DD, offset: 0xF2DD, size: 0x8, addend: 0x0, symName: __ZNKSt3__16vectorIiNS_9allocatorIiEEE9__end_capB8ue170006Ev, symObjAddr: 0x10C8, symBinAddr: 0x100004330, symSize: 0x28 }
  - { offsetInCU: 0xF302, offset: 0xF302, size: 0x8, addend: 0x0, symName: __ZNKSt3__117__compressed_pairIPiNS_9allocatorIiEEE5firstB8ue170006Ev, symObjAddr: 0x10F0, symBinAddr: 0x100004358, symSize: 0x24 }
  - { offsetInCU: 0xF327, offset: 0xF327, size: 0x8, addend: 0x0, symName: __ZNKSt3__122__compressed_pair_elemIPiLi0ELb0EE5__getB8ue170006Ev, symObjAddr: 0x1114, symBinAddr: 0x10000437C, symSize: 0x14 }
  - { offsetInCU: 0xF365, offset: 0xF365, size: 0x8, addend: 0x0, symName: __ZNSt3__16vectorIiNS_9allocatorIiEEE21_ConstructTransactionC1B8ue170006ERS3_m, symObjAddr: 0x1128, symBinAddr: 0x100004390, symSize: 0x3C }
  - { offsetInCU: 0xF3AC, offset: 0xF3AC, size: 0x8, addend: 0x0, symName: __ZNSt3__16vectorIiNS_9allocatorIiEEE21_ConstructTransactionD1B8ue170006Ev, symObjAddr: 0x11E4, symBinAddr: 0x10000444C, symSize: 0x2C }
  - { offsetInCU: 0xF3D5, offset: 0xF3D5, size: 0x8, addend: 0x0, symName: __ZNSt3__16vectorIiNS_9allocatorIiEEE21_ConstructTransactionC2B8ue170006ERS3_m, symObjAddr: 0x1210, symBinAddr: 0x100004478, symSize: 0x44 }
  - { offsetInCU: 0xF43A, offset: 0xF43A, size: 0x8, addend: 0x0, symName: __ZNSt3__14pairIPKiS2_EC1B8ue170006IS2_S2_LPv0EEEOT_OT0_, symObjAddr: 0x13A8, symBinAddr: 0x100004610, symSize: 0x3C }
  - { offsetInCU: 0xF497, offset: 0xF497, size: 0x8, addend: 0x0, symName: __ZNSt3__14pairIPKiS2_EC2B8ue170006IS2_S2_LPv0EEEOT_OT0_, symObjAddr: 0x13E4, symBinAddr: 0x10000464C, symSize: 0x34 }
  - { offsetInCU: 0xF4F4, offset: 0xF4F4, size: 0x8, addend: 0x0, symName: __ZNSt3__118__unwrap_iter_implIPKiLb1EE8__unwrapB8ue170006ES2_, symObjAddr: 0x1418, symBinAddr: 0x100004680, symSize: 0x24 }
  - { offsetInCU: 0xF53A, offset: 0xF53A, size: 0x8, addend: 0x0, symName: __ZNKSt3__114__copy_trivialclB8ue170006IKiiLi0EEENS_4pairIPT_PT0_EES5_S5_S7_, symObjAddr: 0x15CC, symBinAddr: 0x100004834, symSize: 0x48 }
  - { offsetInCU: 0xF5AB, offset: 0xF5AB, size: 0x8, addend: 0x0, symName: __ZNSt3__14pairIPKiPiEC1B8ue170006IRS2_S3_LPv0EEEOT_OT0_, symObjAddr: 0x1794, symBinAddr: 0x1000049FC, symSize: 0x3C }
  - { offsetInCU: 0xF608, offset: 0xF608, size: 0x8, addend: 0x0, symName: __ZNSt3__14pairIPKiPiEC2B8ue170006IRS2_S3_LPv0EEEOT_OT0_, symObjAddr: 0x17D0, symBinAddr: 0x100004A38, symSize: 0x34 }
  - { offsetInCU: 0xF665, offset: 0xF665, size: 0x8, addend: 0x0, symName: __ZNSt3__14pairIPKiPiEC1B8ue170006IS2_S3_LPv0EEEOT_OT0_, symObjAddr: 0x1804, symBinAddr: 0x100004A6C, symSize: 0x3C }
  - { offsetInCU: 0xF6C2, offset: 0xF6C2, size: 0x8, addend: 0x0, symName: __ZNSt3__14pairIPKiPiEC2B8ue170006IS2_S3_LPv0EEEOT_OT0_, symObjAddr: 0x1840, symBinAddr: 0x100004AA8, symSize: 0x34 }
  - { offsetInCU: 0xF71F, offset: 0xF71F, size: 0x8, addend: 0x0, symName: __ZNSt3__118__unwrap_iter_implIPKiLb1EE8__rewrapB8ue170006ES2_S2_, symObjAddr: 0x18B0, symBinAddr: 0x100004B18, symSize: 0x50 }
  - { offsetInCU: 0xF750, offset: 0xF750, size: 0x8, addend: 0x0, symName: __ZNSt3__118__unwrap_iter_implIPiLb1EE8__unwrapB8ue170006ES1_, symObjAddr: 0x1900, symBinAddr: 0x100004B68, symSize: 0x24 }
  - { offsetInCU: 0xF773, offset: 0xF773, size: 0x8, addend: 0x0, symName: __ZNSt3__118__unwrap_iter_implIPiLb1EE8__rewrapB8ue170006ES1_S1_, symObjAddr: 0x1924, symBinAddr: 0x100004B8C, symSize: 0x50 }
  - { offsetInCU: 0xF7A4, offset: 0xF7A4, size: 0x8, addend: 0x0, symName: __ZNSt3__16vectorIiNS_9allocatorIiEEE21_ConstructTransactionD2B8ue170006Ev, symObjAddr: 0x1974, symBinAddr: 0x100004BDC, symSize: 0x20 }
  - { offsetInCU: 0xF7CD, offset: 0xF7CD, size: 0x8, addend: 0x0, symName: __ZNSt3__128__exception_guard_exceptionsINS_6vectorIiNS_9allocatorIiEEE16__destroy_vectorEED2B8ue170006Ev, symObjAddr: 0x1994, symBinAddr: 0x100004BFC, symSize: 0x50 }
  - { offsetInCU: 0xF7F6, offset: 0xF7F6, size: 0x8, addend: 0x0, symName: __ZNSt3__16vectorIiNS_9allocatorIiEEE16__destroy_vectorclB8ue170006Ev, symObjAddr: 0x19E4, symBinAddr: 0x100004C4C, symSize: 0x90 }
  - { offsetInCU: 0xF81B, offset: 0xF81B, size: 0x8, addend: 0x0, symName: __ZNSt3__16vectorIiNS_9allocatorIiEEE7__clearB8ue170006Ev, symObjAddr: 0x1A74, symBinAddr: 0x100004CDC, symSize: 0x28 }
  - { offsetInCU: 0xF840, offset: 0xF840, size: 0x8, addend: 0x0, symName: __ZNKSt3__16vectorIiNS_9allocatorIiEEE17__annotate_deleteB8ue170006Ev, symObjAddr: 0x1A9C, symBinAddr: 0x100004D04, symSize: 0xB8 }
  - { offsetInCU: 0xF865, offset: 0xF865, size: 0x8, addend: 0x0, symName: __ZNSt3__116allocator_traitsINS_9allocatorIiEEE10deallocateB8ue170006ERS2_Pim, symObjAddr: 0x1B54, symBinAddr: 0x100004DBC, symSize: 0x34 }
  - { offsetInCU: 0xF8A7, offset: 0xF8A7, size: 0x8, addend: 0x0, symName: __ZNSt3__16vectorIiNS_9allocatorIiEEE22__base_destruct_at_endB8ue170006EPi, symObjAddr: 0x1B88, symBinAddr: 0x100004DF0, symSize: 0x8C }
  - { offsetInCU: 0xF8EA, offset: 0xF8EA, size: 0x8, addend: 0x0, symName: __ZNSt3__116allocator_traitsINS_9allocatorIiEEE7destroyB8ue170006IivEEvRS2_PT_, symObjAddr: 0x1C14, symBinAddr: 0x100004E7C, symSize: 0x2C }
  - { offsetInCU: 0xF927, offset: 0xF927, size: 0x8, addend: 0x0, symName: __ZNSt3__19allocatorIiE7destroyB8ue170006EPi, symObjAddr: 0x1C40, symBinAddr: 0x100004EA8, symSize: 0x14 }
  - { offsetInCU: 0xF95A, offset: 0xF95A, size: 0x8, addend: 0x0, symName: __ZNKSt3__16vectorIiNS_9allocatorIiEEE4sizeB8ue170006Ev, symObjAddr: 0x1C54, symBinAddr: 0x100004EBC, symSize: 0x28 }
  - { offsetInCU: 0xF97F, offset: 0xF97F, size: 0x8, addend: 0x0, symName: __ZNSt3__19allocatorIiE10deallocateB8ue170006EPim, symObjAddr: 0x1C7C, symBinAddr: 0x100004EE4, symSize: 0x40 }
  - { offsetInCU: 0xF9C0, offset: 0xF9C0, size: 0x8, addend: 0x0, symName: __ZNSt3__16vectorIiNS_9allocatorIiEEED2B8ue170006Ev, symObjAddr: 0x1D38, symBinAddr: 0x100004FA0, symSize: 0x40 }
  - { offsetInCU: 0xF9E9, offset: 0xF9E9, size: 0x8, addend: 0x0, symName: __ZNSt3__16vectorIiNS_9allocatorIiEEEC2ERKS3_, symObjAddr: 0x1D78, symBinAddr: 0x100004FE0, symSize: 0x94 }
  - { offsetInCU: 0xFA23, offset: 0xFA23, size: 0x8, addend: 0x0, symName: __ZNSt3__116allocator_traitsINS_9allocatorIiEEE37select_on_container_copy_constructionB8ue170006IS2_vvEES2_RKS2_, symObjAddr: 0x1E0C, symBinAddr: 0x100005074, symSize: 0x10 }
  - { offsetInCU: 0xFA57, offset: 0xFA57, size: 0x8, addend: 0x0, symName: __ZNSt3__117__compressed_pairIPiNS_9allocatorIiEEEC1B8ue170006IDnS3_EEOT_OT0_, symObjAddr: 0x1E1C, symBinAddr: 0x100005084, symSize: 0x3C }
  - { offsetInCU: 0xFAAE, offset: 0xFAAE, size: 0x8, addend: 0x0, symName: __ZNSt3__16vectorIiNS_9allocatorIiEEE16__init_with_sizeB8ue170006IPiS5_EEvT_T0_m, symObjAddr: 0x1E58, symBinAddr: 0x1000050C0, symSize: 0xB8 }
  - { offsetInCU: 0xFB21, offset: 0xFB21, size: 0x8, addend: 0x0, symName: __ZNSt3__117__compressed_pairIPiNS_9allocatorIiEEEC2B8ue170006IDnS3_EEOT_OT0_, symObjAddr: 0x1F10, symBinAddr: 0x100005178, symSize: 0x44 }
  - { offsetInCU: 0xFB78, offset: 0xFB78, size: 0x8, addend: 0x0, symName: __ZNSt3__122__compressed_pair_elemINS_9allocatorIiEELi1ELb1EEC2B8ue170006IS2_vEEOT_, symObjAddr: 0x1F54, symBinAddr: 0x1000051BC, symSize: 0x18 }
  - { offsetInCU: 0xFBB8, offset: 0xFBB8, size: 0x8, addend: 0x0, symName: __ZNSt3__16vectorIiNS_9allocatorIiEEE18__construct_at_endIPiS5_EEvT_T0_m, symObjAddr: 0x1F6C, symBinAddr: 0x1000051D4, symSize: 0x8C }
  - { offsetInCU: 0xFC46, offset: 0xFC46, size: 0x8, addend: 0x0, symName: __ZNSt3__14pairIPiS1_EC1B8ue170006IS1_S1_LPv0EEEOT_OT0_, symObjAddr: 0x2148, symBinAddr: 0x1000053B0, symSize: 0x3C }
  - { offsetInCU: 0xFCA3, offset: 0xFCA3, size: 0x8, addend: 0x0, symName: __ZNSt3__14pairIPiS1_EC2B8ue170006IS1_S1_LPv0EEEOT_OT0_, symObjAddr: 0x2184, symBinAddr: 0x1000053EC, symSize: 0x34 }
  - { offsetInCU: 0xFD00, offset: 0xFD00, size: 0x8, addend: 0x0, symName: __ZNKSt3__114__copy_trivialclB8ue170006IiiLi0EEENS_4pairIPT_PT0_EES4_S4_S6_, symObjAddr: 0x2334, symBinAddr: 0x10000559C, symSize: 0x48 }
  - { offsetInCU: 0xFD67, offset: 0xFD67, size: 0x8, addend: 0x0, symName: __ZNSt3__14pairIPiS1_EC1B8ue170006IRS1_S1_LPv0EEEOT_OT0_, symObjAddr: 0x24C4, symBinAddr: 0x10000572C, symSize: 0x3C }
  - { offsetInCU: 0xFDC4, offset: 0xFDC4, size: 0x8, addend: 0x0, symName: __ZNSt3__14pairIPiS1_EC2B8ue170006IRS1_S1_LPv0EEEOT_OT0_, symObjAddr: 0x2500, symBinAddr: 0x100005768, symSize: 0x34 }
  - { offsetInCU: 0xFE21, offset: 0xFE21, size: 0x8, addend: 0x0, symName: __ZN6TensorIfEC2ENSt3__16vectorIiNS1_9allocatorIiEEEE, symObjAddr: 0x2534, symBinAddr: 0x10000579C, symSize: 0xFC }
  - { offsetInCU: 0xFE59, offset: 0xFE59, size: 0x8, addend: 0x0, symName: __ZN5ArrayIfEC1ERKNSt3__16vectorIiNS1_9allocatorIiEEEE, symObjAddr: 0x2630, symBinAddr: 0x100005898, symSize: 0x34 }
  - { offsetInCU: 0xFE90, offset: 0xFE90, size: 0x8, addend: 0x0, symName: __ZN5ArrayIfEC2ERKNSt3__16vectorIiNS1_9allocatorIiEEEE, symObjAddr: 0x2664, symBinAddr: 0x1000058CC, symSize: 0x1DC }
  - { offsetInCU: 0xFF13, offset: 0xFF13, size: 0x8, addend: 0x0, symName: __ZNSt3__16vectorIfNS_9allocatorIfEEEC1B8ue170006Ev, symObjAddr: 0x2840, symBinAddr: 0x100005AA8, symSize: 0x2C }
  - { offsetInCU: 0xFF3C, offset: 0xFF3C, size: 0x8, addend: 0x0, symName: __ZNSt3__16vectorIiNS_9allocatorIiEEEC1B8ue170006Ev, symObjAddr: 0x286C, symBinAddr: 0x100005AD4, symSize: 0x2C }
  - { offsetInCU: 0xFF65, offset: 0xFF65, size: 0x8, addend: 0x0, symName: __ZN5ArrayIfE6setDimEi, symObjAddr: 0x2898, symBinAddr: 0x100005B00, symSize: 0x20 }
  - { offsetInCU: 0xFF98, offset: 0xFF98, size: 0x8, addend: 0x0, symName: __ZN5ArrayIfE6getDimEv, symObjAddr: 0x28B8, symBinAddr: 0x100005B20, symSize: 0x18 }
  - { offsetInCU: 0xFFBD, offset: 0xFFBD, size: 0x8, addend: 0x0, symName: __ZNKSt3__16vectorIiNS_9allocatorIiEEEixB8ue170006Em, symObjAddr: 0x28D0, symBinAddr: 0x100005B38, symSize: 0x24 }
  - { offsetInCU: 0xFFF3, offset: 0xFFF3, size: 0x8, addend: 0x0, symName: __ZN5ArrayIfE7setSizeEi, symObjAddr: 0x28F4, symBinAddr: 0x100005B5C, symSize: 0x20 }
  - { offsetInCU: 0x10025, offset: 0x10025, size: 0x8, addend: 0x0, symName: __ZNSt3__16vectorIfNS_9allocatorIfEEE6resizeEm, symObjAddr: 0x2914, symBinAddr: 0x100005B7C, symSize: 0x94 }
  - { offsetInCU: 0x1006A, offset: 0x1006A, size: 0x8, addend: 0x0, symName: __ZN5ArrayIfE7setDataEif, symObjAddr: 0x29A8, symBinAddr: 0x100005C10, symSize: 0x44 }
  - { offsetInCU: 0x100AB, offset: 0x100AB, size: 0x8, addend: 0x0, symName: __ZN5ArrayIfE11calcStridesERNSt3__16vectorIiNS1_9allocatorIiEEEES5_i, symObjAddr: 0x29EC, symBinAddr: 0x100005C54, symSize: 0xF8 }
  - { offsetInCU: 0x10118, offset: 0x10118, size: 0x8, addend: 0x0, symName: __ZNSt3__16vectorIfNS_9allocatorIfEEED1B8ue170006Ev, symObjAddr: 0x2AE4, symBinAddr: 0x100005D4C, symSize: 0x2C }
  - { offsetInCU: 0x10141, offset: 0x10141, size: 0x8, addend: 0x0, symName: __ZNSt3__16vectorIfNS_9allocatorIfEEEC2B8ue170006Ev, symObjAddr: 0x2B10, symBinAddr: 0x100005D78, symSize: 0x4C }
  - { offsetInCU: 0x1016A, offset: 0x1016A, size: 0x8, addend: 0x0, symName: __ZNSt3__117__compressed_pairIPfNS_9allocatorIfEEEC1B8ue170006IDnNS_18__default_init_tagEEEOT_OT0_, symObjAddr: 0x2B5C, symBinAddr: 0x100005DC4, symSize: 0x3C }
  - { offsetInCU: 0x101C1, offset: 0x101C1, size: 0x8, addend: 0x0, symName: __ZNSt3__117__compressed_pairIPfNS_9allocatorIfEEEC2B8ue170006IDnNS_18__default_init_tagEEEOT_OT0_, symObjAddr: 0x2B98, symBinAddr: 0x100005E00, symSize: 0x40 }
  - { offsetInCU: 0x10218, offset: 0x10218, size: 0x8, addend: 0x0, symName: __ZNSt3__122__compressed_pair_elemIPfLi0ELb0EEC2B8ue170006IDnvEEOT_, symObjAddr: 0x2BD8, symBinAddr: 0x100005E40, symSize: 0x1C }
  - { offsetInCU: 0x10259, offset: 0x10259, size: 0x8, addend: 0x0, symName: __ZNSt3__122__compressed_pair_elemINS_9allocatorIfEELi1ELb1EEC2B8ue170006ENS_18__default_init_tagE, symObjAddr: 0x2BF4, symBinAddr: 0x100005E5C, symSize: 0x2C }
  - { offsetInCU: 0x1028D, offset: 0x1028D, size: 0x8, addend: 0x0, symName: __ZNSt3__19allocatorIfEC2B8ue170006Ev, symObjAddr: 0x2C20, symBinAddr: 0x100005E88, symSize: 0x2C }
  - { offsetInCU: 0x102B6, offset: 0x102B6, size: 0x8, addend: 0x0, symName: __ZNSt3__116__non_trivial_ifILb1ENS_9allocatorIfEEEC2B8ue170006Ev, symObjAddr: 0x2C4C, symBinAddr: 0x100005EB4, symSize: 0x14 }
  - { offsetInCU: 0x102DF, offset: 0x102DF, size: 0x8, addend: 0x0, symName: __ZNSt3__16vectorIiNS_9allocatorIiEEEC2B8ue170006Ev, symObjAddr: 0x2C60, symBinAddr: 0x100005EC8, symSize: 0x4C }
  - { offsetInCU: 0x10308, offset: 0x10308, size: 0x8, addend: 0x0, symName: __ZNKSt3__16vectorIfNS_9allocatorIfEEE4sizeB8ue170006Ev, symObjAddr: 0x2CAC, symBinAddr: 0x100005F14, symSize: 0x28 }
  - { offsetInCU: 0x1032C, offset: 0x1032C, size: 0x8, addend: 0x0, symName: __ZNSt3__16vectorIfNS_9allocatorIfEEE8__appendEm, symObjAddr: 0x2CD4, symBinAddr: 0x100005F3C, symSize: 0x108 }
  - { offsetInCU: 0x10386, offset: 0x10386, size: 0x8, addend: 0x0, symName: __ZNSt3__16vectorIfNS_9allocatorIfEEE17__destruct_at_endB8ue170006EPf, symObjAddr: 0x2DDC, symBinAddr: 0x100006044, symSize: 0x4C }
  - { offsetInCU: 0x103C9, offset: 0x103C9, size: 0x8, addend: 0x0, symName: __ZNSt3__16vectorIfNS_9allocatorIfEEE9__end_capB8ue170006Ev, symObjAddr: 0x2E28, symBinAddr: 0x100006090, symSize: 0x28 }
  - { offsetInCU: 0x103ED, offset: 0x103ED, size: 0x8, addend: 0x0, symName: __ZNSt3__16vectorIfNS_9allocatorIfEEE18__construct_at_endEm, symObjAddr: 0x2E50, symBinAddr: 0x1000060B8, symSize: 0xC8 }
  - { offsetInCU: 0x1045E, offset: 0x1045E, size: 0x8, addend: 0x0, symName: __ZNSt3__16vectorIfNS_9allocatorIfEEE7__allocB8ue170006Ev, symObjAddr: 0x2F18, symBinAddr: 0x100006180, symSize: 0x28 }
  - { offsetInCU: 0x10482, offset: 0x10482, size: 0x8, addend: 0x0, symName: __ZNKSt3__16vectorIfNS_9allocatorIfEEE11__recommendB8ue170006Em, symObjAddr: 0x2F40, symBinAddr: 0x1000061A8, symSize: 0xB4 }
  - { offsetInCU: 0x104D6, offset: 0x104D6, size: 0x8, addend: 0x0, symName: __ZNSt3__114__split_bufferIfRNS_9allocatorIfEEEC1EmmS3_, symObjAddr: 0x2FF4, symBinAddr: 0x10000625C, symSize: 0x44 }
  - { offsetInCU: 0x1052A, offset: 0x1052A, size: 0x8, addend: 0x0, symName: __ZNSt3__114__split_bufferIfRNS_9allocatorIfEEE18__construct_at_endEm, symObjAddr: 0x3038, symBinAddr: 0x1000062A0, symSize: 0xB4 }
  - { offsetInCU: 0x1056E, offset: 0x1056E, size: 0x8, addend: 0x0, symName: __ZNSt3__114__split_bufferIfRNS_9allocatorIfEEED1Ev, symObjAddr: 0x31FC, symBinAddr: 0x100006464, symSize: 0x2C }
  - { offsetInCU: 0x10599, offset: 0x10599, size: 0x8, addend: 0x0, symName: __ZNSt3__117__compressed_pairIPfNS_9allocatorIfEEE5firstB8ue170006Ev, symObjAddr: 0x3228, symBinAddr: 0x100006490, symSize: 0x24 }
  - { offsetInCU: 0x105BE, offset: 0x105BE, size: 0x8, addend: 0x0, symName: __ZNSt3__122__compressed_pair_elemIPfLi0ELb0EE5__getB8ue170006Ev, symObjAddr: 0x324C, symBinAddr: 0x1000064B4, symSize: 0x14 }
  - { offsetInCU: 0x105FC, offset: 0x105FC, size: 0x8, addend: 0x0, symName: __ZNSt3__16vectorIfNS_9allocatorIfEEE21_ConstructTransactionC1B8ue170006ERS3_m, symObjAddr: 0x3260, symBinAddr: 0x1000064C8, symSize: 0x3C }
  - { offsetInCU: 0x10643, offset: 0x10643, size: 0x8, addend: 0x0, symName: __ZNSt3__116allocator_traitsINS_9allocatorIfEEE9constructB8ue170006IfJEvEEvRS2_PT_DpOT0_, symObjAddr: 0x329C, symBinAddr: 0x100006504, symSize: 0x2C }
  - { offsetInCU: 0x10685, offset: 0x10685, size: 0x8, addend: 0x0, symName: __ZNSt3__16vectorIfNS_9allocatorIfEEE21_ConstructTransactionD1B8ue170006Ev, symObjAddr: 0x32DC, symBinAddr: 0x100006544, symSize: 0x2C }
  - { offsetInCU: 0x106AE, offset: 0x106AE, size: 0x8, addend: 0x0, symName: __ZNSt3__16vectorIfNS_9allocatorIfEEE21_ConstructTransactionC2B8ue170006ERS3_m, symObjAddr: 0x3308, symBinAddr: 0x100006570, symSize: 0x44 }
  - { offsetInCU: 0x106F5, offset: 0x106F5, size: 0x8, addend: 0x0, symName: __ZNSt3__19allocatorIfE9constructB8ue170006IfJEEEvPT_DpOT0_, symObjAddr: 0x334C, symBinAddr: 0x1000065B4, symSize: 0x20 }
  - { offsetInCU: 0x10736, offset: 0x10736, size: 0x8, addend: 0x0, symName: __ZNSt3__16vectorIfNS_9allocatorIfEEE21_ConstructTransactionD2B8ue170006Ev, symObjAddr: 0x336C, symBinAddr: 0x1000065D4, symSize: 0x20 }
  - { offsetInCU: 0x1075F, offset: 0x1075F, size: 0x8, addend: 0x0, symName: __ZNSt3__117__compressed_pairIPfNS_9allocatorIfEEE6secondB8ue170006Ev, symObjAddr: 0x338C, symBinAddr: 0x1000065F4, symSize: 0x24 }
  - { offsetInCU: 0x10784, offset: 0x10784, size: 0x8, addend: 0x0, symName: __ZNSt3__122__compressed_pair_elemINS_9allocatorIfEELi1ELb1EE5__getB8ue170006Ev, symObjAddr: 0x33B0, symBinAddr: 0x100006618, symSize: 0x14 }
  - { offsetInCU: 0x107A8, offset: 0x107A8, size: 0x8, addend: 0x0, symName: __ZNKSt3__16vectorIfNS_9allocatorIfEEE8max_sizeEv, symObjAddr: 0x33C4, symBinAddr: 0x10000662C, symSize: 0x60 }
  - { offsetInCU: 0x107CF, offset: 0x107CF, size: 0x8, addend: 0x0, symName: __ZNKSt3__16vectorIfNS_9allocatorIfEEE20__throw_length_errorB8ue170006Ev, symObjAddr: 0x3424, symBinAddr: 0x10000668C, symSize: 0x1C }
  - { offsetInCU: 0x107F4, offset: 0x107F4, size: 0x8, addend: 0x0, symName: __ZNKSt3__16vectorIfNS_9allocatorIfEEE8capacityB8ue170006Ev, symObjAddr: 0x3440, symBinAddr: 0x1000066A8, symSize: 0x40 }
  - { offsetInCU: 0x10823, offset: 0x10823, size: 0x8, addend: 0x0, symName: __ZNSt3__116allocator_traitsINS_9allocatorIfEEE8max_sizeB8ue170006IS2_vEEmRKS2_, symObjAddr: 0x34AC, symBinAddr: 0x100006714, symSize: 0x24 }
  - { offsetInCU: 0x10851, offset: 0x10851, size: 0x8, addend: 0x0, symName: __ZNKSt3__16vectorIfNS_9allocatorIfEEE7__allocB8ue170006Ev, symObjAddr: 0x34D0, symBinAddr: 0x100006738, symSize: 0x28 }
  - { offsetInCU: 0x10876, offset: 0x10876, size: 0x8, addend: 0x0, symName: __ZNKSt3__19allocatorIfE8max_sizeB8ue170006Ev, symObjAddr: 0x34F8, symBinAddr: 0x100006760, symSize: 0x14 }
  - { offsetInCU: 0x1089B, offset: 0x1089B, size: 0x8, addend: 0x0, symName: __ZNKSt3__117__compressed_pairIPfNS_9allocatorIfEEE6secondB8ue170006Ev, symObjAddr: 0x350C, symBinAddr: 0x100006774, symSize: 0x24 }
  - { offsetInCU: 0x108C0, offset: 0x108C0, size: 0x8, addend: 0x0, symName: __ZNKSt3__122__compressed_pair_elemINS_9allocatorIfEELi1ELb1EE5__getB8ue170006Ev, symObjAddr: 0x3530, symBinAddr: 0x100006798, symSize: 0x14 }
  - { offsetInCU: 0x108E5, offset: 0x108E5, size: 0x8, addend: 0x0, symName: __ZNKSt3__16vectorIfNS_9allocatorIfEEE9__end_capB8ue170006Ev, symObjAddr: 0x3544, symBinAddr: 0x1000067AC, symSize: 0x28 }
  - { offsetInCU: 0x1090A, offset: 0x1090A, size: 0x8, addend: 0x0, symName: __ZNKSt3__117__compressed_pairIPfNS_9allocatorIfEEE5firstB8ue170006Ev, symObjAddr: 0x356C, symBinAddr: 0x1000067D4, symSize: 0x24 }
  - { offsetInCU: 0x1092F, offset: 0x1092F, size: 0x8, addend: 0x0, symName: __ZNKSt3__122__compressed_pair_elemIPfLi0ELb0EE5__getB8ue170006Ev, symObjAddr: 0x3590, symBinAddr: 0x1000067F8, symSize: 0x14 }
  - { offsetInCU: 0x10954, offset: 0x10954, size: 0x8, addend: 0x0, symName: __ZNSt3__114__split_bufferIfRNS_9allocatorIfEEEC2EmmS3_, symObjAddr: 0x35F8, symBinAddr: 0x100006860, symSize: 0xD4 }
  - { offsetInCU: 0x109C6, offset: 0x109C6, size: 0x8, addend: 0x0, symName: __ZNSt3__117__compressed_pairIPfRNS_9allocatorIfEEEC1B8ue170006IDnS4_EEOT_OT0_, symObjAddr: 0x36CC, symBinAddr: 0x100006934, symSize: 0x3C }
  - { offsetInCU: 0x10A1D, offset: 0x10A1D, size: 0x8, addend: 0x0, symName: __ZNSt3__114__split_bufferIfRNS_9allocatorIfEEE7__allocB8ue170006Ev, symObjAddr: 0x3748, symBinAddr: 0x1000069B0, symSize: 0x28 }
  - { offsetInCU: 0x10A42, offset: 0x10A42, size: 0x8, addend: 0x0, symName: __ZNSt3__114__split_bufferIfRNS_9allocatorIfEEE9__end_capB8ue170006Ev, symObjAddr: 0x3770, symBinAddr: 0x1000069D8, symSize: 0x28 }
  - { offsetInCU: 0x10A67, offset: 0x10A67, size: 0x8, addend: 0x0, symName: __ZNSt3__117__compressed_pairIPfRNS_9allocatorIfEEEC2B8ue170006IDnS4_EEOT_OT0_, symObjAddr: 0x3798, symBinAddr: 0x100006A00, symSize: 0x48 }
  - { offsetInCU: 0x10ABE, offset: 0x10ABE, size: 0x8, addend: 0x0, symName: __ZNSt3__122__compressed_pair_elemIRNS_9allocatorIfEELi1ELb0EEC2B8ue170006IS3_vEEOT_, symObjAddr: 0x37E0, symBinAddr: 0x100006A48, symSize: 0x20 }
  - { offsetInCU: 0x10AFF, offset: 0x10AFF, size: 0x8, addend: 0x0, symName: __ZNSt3__19allocatorIfE8allocateB8ue170006Em, symObjAddr: 0x3800, symBinAddr: 0x100006A68, symSize: 0x58 }
  - { offsetInCU: 0x10B32, offset: 0x10B32, size: 0x8, addend: 0x0, symName: __ZNSt3__117__compressed_pairIPfRNS_9allocatorIfEEE6secondB8ue170006Ev, symObjAddr: 0x3858, symBinAddr: 0x100006AC0, symSize: 0x28 }
  - { offsetInCU: 0x10B57, offset: 0x10B57, size: 0x8, addend: 0x0, symName: __ZNSt3__122__compressed_pair_elemIRNS_9allocatorIfEELi1ELb0EE5__getB8ue170006Ev, symObjAddr: 0x3880, symBinAddr: 0x100006AE8, symSize: 0x18 }
  - { offsetInCU: 0x10B7C, offset: 0x10B7C, size: 0x8, addend: 0x0, symName: __ZNSt3__117__compressed_pairIPfRNS_9allocatorIfEEE5firstB8ue170006Ev, symObjAddr: 0x3898, symBinAddr: 0x100006B00, symSize: 0x24 }
  - { offsetInCU: 0x10BAB, offset: 0x10BAB, size: 0x8, addend: 0x0, symName: __ZNSt3__114__split_bufferIfRNS_9allocatorIfEEE21_ConstructTransactionC1B8ue170006EPPfm, symObjAddr: 0x38BC, symBinAddr: 0x100006B24, symSize: 0x3C }
  - { offsetInCU: 0x10BF0, offset: 0x10BF0, size: 0x8, addend: 0x0, symName: __ZNSt3__114__split_bufferIfRNS_9allocatorIfEEE21_ConstructTransactionD1B8ue170006Ev, symObjAddr: 0x38F8, symBinAddr: 0x100006B60, symSize: 0x2C }
  - { offsetInCU: 0x10C19, offset: 0x10C19, size: 0x8, addend: 0x0, symName: __ZNSt3__114__split_bufferIfRNS_9allocatorIfEEE21_ConstructTransactionC2B8ue170006EPPfm, symObjAddr: 0x3924, symBinAddr: 0x100006B8C, symSize: 0x44 }
  - { offsetInCU: 0x10C5E, offset: 0x10C5E, size: 0x8, addend: 0x0, symName: __ZNSt3__114__split_bufferIfRNS_9allocatorIfEEE21_ConstructTransactionD2B8ue170006Ev, symObjAddr: 0x3968, symBinAddr: 0x100006BD0, symSize: 0x20 }
  - { offsetInCU: 0x10C87, offset: 0x10C87, size: 0x8, addend: 0x0, symName: __ZNKSt3__16vectorIfNS_9allocatorIfEEE17__annotate_deleteB8ue170006Ev, symObjAddr: 0x3988, symBinAddr: 0x100006BF0, symSize: 0xB8 }
  - { offsetInCU: 0x10CAC, offset: 0x10CAC, size: 0x8, addend: 0x0, symName: __ZNSt3__116reverse_iteratorIPfEC1B8ue170006ES1_, symObjAddr: 0x3AB8, symBinAddr: 0x100006D20, symSize: 0x34 }
  - { offsetInCU: 0x10CE3, offset: 0x10CE3, size: 0x8, addend: 0x0, symName: __ZNKSt3__116reverse_iteratorIPfE4baseB8ue170006Ev, symObjAddr: 0x3AEC, symBinAddr: 0x100006D54, symSize: 0x18 }
  - { offsetInCU: 0x10D08, offset: 0x10D08, size: 0x8, addend: 0x0, symName: __ZNKSt3__16vectorIfNS_9allocatorIfEEE14__annotate_newB8ue170006Em, symObjAddr: 0x3B40, symBinAddr: 0x100006DA8, symSize: 0xAC }
  - { offsetInCU: 0x10D3C, offset: 0x10D3C, size: 0x8, addend: 0x0, symName: __ZNKSt3__16vectorIfNS_9allocatorIfEEE31__annotate_contiguous_containerB8ue170006EPKvS5_S5_S5_, symObjAddr: 0x3BEC, symBinAddr: 0x100006E54, symSize: 0x20 }
  - { offsetInCU: 0x10D8D, offset: 0x10D8D, size: 0x8, addend: 0x0, symName: __ZNKSt3__16vectorIfNS_9allocatorIfEEE4dataB8ue170006Ev, symObjAddr: 0x3C0C, symBinAddr: 0x100006E74, symSize: 0x28 }
  - { offsetInCU: 0x10DD5, offset: 0x10DD5, size: 0x8, addend: 0x0, symName: __ZNKSt3__111__move_loopINS_17_ClassicAlgPolicyEEclB8ue170006INS_16reverse_iteratorIPfEES6_S6_EENS_4pairIT_T1_EES8_T0_S9_, symObjAddr: 0x3F24, symBinAddr: 0x10000718C, symSize: 0xA0 }
  - { offsetInCU: 0x10E44, offset: 0x10E44, size: 0x8, addend: 0x0, symName: __ZNSt3__18_IterOpsINS_17_ClassicAlgPolicyEE11__iter_moveB8ue170006IRNS_16reverse_iteratorIPfEEEENS_9enable_ifIXsr12is_referenceIDTdeclsr3stdE7declvalIRT_EEEEE5valueEDTclsr3stdE4movedeclsr3stdE7declvalISA_EEEEE4typeEOS9_, symObjAddr: 0x4158, symBinAddr: 0x1000073C0, symSize: 0x28 }
  - { offsetInCU: 0x10E70, offset: 0x10E70, size: 0x8, addend: 0x0, symName: __ZNKSt3__116reverse_iteratorIPfEdeB8ue170006Ev, symObjAddr: 0x4180, symBinAddr: 0x1000073E8, symSize: 0x28 }
  - { offsetInCU: 0x10EA3, offset: 0x10EA3, size: 0x8, addend: 0x0, symName: __ZNSt3__116reverse_iteratorIPfEppB8ue170006Ev, symObjAddr: 0x41A8, symBinAddr: 0x100007410, symSize: 0x20 }
  - { offsetInCU: 0x10EC8, offset: 0x10EC8, size: 0x8, addend: 0x0, symName: __ZNSt3__18_IterOpsINS_17_ClassicAlgPolicyEE25__validate_iter_referenceB8ue170006IRNS_16reverse_iteratorIPfEEEEvv, symObjAddr: 0x41C8, symBinAddr: 0x100007430, symSize: 0x4 }
  - { offsetInCU: 0x10EE6, offset: 0x10EE6, size: 0x8, addend: 0x0, symName: __ZNSt3__118__unwrap_iter_implINS_16reverse_iteratorIPfEELb0EE8__unwrapB8ue170006ES3_, symObjAddr: 0x41CC, symBinAddr: 0x100007434, symSize: 0x24 }
  - { offsetInCU: 0x10F0E, offset: 0x10F0E, size: 0x8, addend: 0x0, symName: __ZNSt3__14pairINS_16reverse_iteratorIPfEES3_EC1B8ue170006IS3_S3_LPv0EEEOT_OT0_, symObjAddr: 0x41F0, symBinAddr: 0x100007458, symSize: 0x3C }
  - { offsetInCU: 0x10F6B, offset: 0x10F6B, size: 0x8, addend: 0x0, symName: __ZNSt3__14pairINS_16reverse_iteratorIPfEES3_EC2B8ue170006IS3_S3_LPv0EEEOT_OT0_, symObjAddr: 0x422C, symBinAddr: 0x100007494, symSize: 0x34 }
  - { offsetInCU: 0x10FC8, offset: 0x10FC8, size: 0x8, addend: 0x0, symName: __ZNSt3__118__unwrap_iter_implINS_16reverse_iteratorIPfEELb0EE8__rewrapB8ue170006ES3_S3_, symObjAddr: 0x4260, symBinAddr: 0x1000074C8, symSize: 0x2C }
  - { offsetInCU: 0x10FF6, offset: 0x10FF6, size: 0x8, addend: 0x0, symName: __ZNSt3__116reverse_iteratorIPfEC2B8ue170006ES1_, symObjAddr: 0x428C, symBinAddr: 0x1000074F4, symSize: 0x28 }
  - { offsetInCU: 0x1102D, offset: 0x1102D, size: 0x8, addend: 0x0, symName: __ZNSt3__114__split_bufferIfRNS_9allocatorIfEEED2Ev, symObjAddr: 0x42B4, symBinAddr: 0x10000751C, symSize: 0x8C }
  - { offsetInCU: 0x11058, offset: 0x11058, size: 0x8, addend: 0x0, symName: __ZNSt3__114__split_bufferIfRNS_9allocatorIfEEE5clearB8ue170006Ev, symObjAddr: 0x4340, symBinAddr: 0x1000075A8, symSize: 0x28 }
  - { offsetInCU: 0x1107D, offset: 0x1107D, size: 0x8, addend: 0x0, symName: __ZNSt3__116allocator_traitsINS_9allocatorIfEEE10deallocateB8ue170006ERS2_Pfm, symObjAddr: 0x4368, symBinAddr: 0x1000075D0, symSize: 0x34 }
  - { offsetInCU: 0x110BF, offset: 0x110BF, size: 0x8, addend: 0x0, symName: __ZNKSt3__114__split_bufferIfRNS_9allocatorIfEEE8capacityB8ue170006Ev, symObjAddr: 0x439C, symBinAddr: 0x100007604, symSize: 0x40 }
  - { offsetInCU: 0x110E4, offset: 0x110E4, size: 0x8, addend: 0x0, symName: __ZNSt3__114__split_bufferIfRNS_9allocatorIfEEE17__destruct_at_endB8ue170006EPf, symObjAddr: 0x43DC, symBinAddr: 0x100007644, symSize: 0x2C }
  - { offsetInCU: 0x11116, offset: 0x11116, size: 0x8, addend: 0x0, symName: __ZNSt3__114__split_bufferIfRNS_9allocatorIfEEE17__destruct_at_endB8ue170006EPfNS_17integral_constantIbLb0EEE, symObjAddr: 0x4408, symBinAddr: 0x100007670, symSize: 0x80 }
  - { offsetInCU: 0x11156, offset: 0x11156, size: 0x8, addend: 0x0, symName: __ZNSt3__116allocator_traitsINS_9allocatorIfEEE7destroyB8ue170006IfvEEvRS2_PT_, symObjAddr: 0x4488, symBinAddr: 0x1000076F0, symSize: 0x2C }
  - { offsetInCU: 0x11193, offset: 0x11193, size: 0x8, addend: 0x0, symName: __ZNSt3__19allocatorIfE7destroyB8ue170006EPf, symObjAddr: 0x44B4, symBinAddr: 0x10000771C, symSize: 0x14 }
  - { offsetInCU: 0x111C6, offset: 0x111C6, size: 0x8, addend: 0x0, symName: __ZNSt3__19allocatorIfE10deallocateB8ue170006EPfm, symObjAddr: 0x44C8, symBinAddr: 0x100007730, symSize: 0x40 }
  - { offsetInCU: 0x11207, offset: 0x11207, size: 0x8, addend: 0x0, symName: __ZNKSt3__114__split_bufferIfRNS_9allocatorIfEEE9__end_capB8ue170006Ev, symObjAddr: 0x4508, symBinAddr: 0x100007770, symSize: 0x28 }
  - { offsetInCU: 0x1122C, offset: 0x1122C, size: 0x8, addend: 0x0, symName: __ZNKSt3__117__compressed_pairIPfRNS_9allocatorIfEEE5firstB8ue170006Ev, symObjAddr: 0x4530, symBinAddr: 0x100007798, symSize: 0x24 }
  - { offsetInCU: 0x11251, offset: 0x11251, size: 0x8, addend: 0x0, symName: __ZNSt3__16vectorIfNS_9allocatorIfEEE22__base_destruct_at_endB8ue170006EPf, symObjAddr: 0x4554, symBinAddr: 0x1000077BC, symSize: 0x8C }
  - { offsetInCU: 0x11294, offset: 0x11294, size: 0x8, addend: 0x0, symName: __ZNKSt3__16vectorIfNS_9allocatorIfEEE17__annotate_shrinkB8ue170006Em, symObjAddr: 0x45E0, symBinAddr: 0x100007848, symSize: 0xB4 }
  - { offsetInCU: 0x112C8, offset: 0x112C8, size: 0x8, addend: 0x0, symName: __ZNSt3__16vectorIfNS_9allocatorIfEEEixB8ue170006Em, symObjAddr: 0x4694, symBinAddr: 0x1000078FC, symSize: 0x24 }
  - { offsetInCU: 0x112FD, offset: 0x112FD, size: 0x8, addend: 0x0, symName: __ZNSt3__16vectorIiNS_9allocatorIiEEE6resizeEm, symObjAddr: 0x46B8, symBinAddr: 0x100007920, symSize: 0x94 }
  - { offsetInCU: 0x11342, offset: 0x11342, size: 0x8, addend: 0x0, symName: __ZNSt3__16vectorIiNS_9allocatorIiEEEixB8ue170006Em, symObjAddr: 0x474C, symBinAddr: 0x1000079B4, symSize: 0x24 }
  - { offsetInCU: 0x11377, offset: 0x11377, size: 0x8, addend: 0x0, symName: __ZNSt3__16vectorIiNS_9allocatorIiEEE8__appendEm, symObjAddr: 0x4770, symBinAddr: 0x1000079D8, symSize: 0x108 }
  - { offsetInCU: 0x113D1, offset: 0x113D1, size: 0x8, addend: 0x0, symName: __ZNSt3__16vectorIiNS_9allocatorIiEEE17__destruct_at_endB8ue170006EPi, symObjAddr: 0x4878, symBinAddr: 0x100007AE0, symSize: 0x4C }
  - { offsetInCU: 0x11413, offset: 0x11413, size: 0x8, addend: 0x0, symName: __ZNSt3__16vectorIiNS_9allocatorIiEEE18__construct_at_endEm, symObjAddr: 0x48C4, symBinAddr: 0x100007B2C, symSize: 0xC8 }
  - { offsetInCU: 0x11483, offset: 0x11483, size: 0x8, addend: 0x0, symName: __ZNKSt3__16vectorIiNS_9allocatorIiEEE11__recommendB8ue170006Em, symObjAddr: 0x498C, symBinAddr: 0x100007BF4, symSize: 0xB4 }
  - { offsetInCU: 0x114D7, offset: 0x114D7, size: 0x8, addend: 0x0, symName: __ZNSt3__114__split_bufferIiRNS_9allocatorIiEEEC1EmmS3_, symObjAddr: 0x4A40, symBinAddr: 0x100007CA8, symSize: 0x44 }
  - { offsetInCU: 0x1152B, offset: 0x1152B, size: 0x8, addend: 0x0, symName: __ZNSt3__114__split_bufferIiRNS_9allocatorIiEEE18__construct_at_endEm, symObjAddr: 0x4A84, symBinAddr: 0x100007CEC, symSize: 0xB4 }
  - { offsetInCU: 0x1156F, offset: 0x1156F, size: 0x8, addend: 0x0, symName: __ZNSt3__114__split_bufferIiRNS_9allocatorIiEEED1Ev, symObjAddr: 0x4C48, symBinAddr: 0x100007EB0, symSize: 0x2C }
  - { offsetInCU: 0x1159A, offset: 0x1159A, size: 0x8, addend: 0x0, symName: __ZNSt3__116allocator_traitsINS_9allocatorIiEEE9constructB8ue170006IiJEvEEvRS2_PT_DpOT0_, symObjAddr: 0x4C74, symBinAddr: 0x100007EDC, symSize: 0x2C }
  - { offsetInCU: 0x115DC, offset: 0x115DC, size: 0x8, addend: 0x0, symName: __ZNSt3__19allocatorIiE9constructB8ue170006IiJEEEvPT_DpOT0_, symObjAddr: 0x4CA0, symBinAddr: 0x100007F08, symSize: 0x1C }
  - { offsetInCU: 0x1161D, offset: 0x1161D, size: 0x8, addend: 0x0, symName: __ZNSt3__114__split_bufferIiRNS_9allocatorIiEEEC2EmmS3_, symObjAddr: 0x4CBC, symBinAddr: 0x100007F24, symSize: 0xD4 }
  - { offsetInCU: 0x1168F, offset: 0x1168F, size: 0x8, addend: 0x0, symName: __ZNSt3__117__compressed_pairIPiRNS_9allocatorIiEEEC1B8ue170006IDnS4_EEOT_OT0_, symObjAddr: 0x4D90, symBinAddr: 0x100007FF8, symSize: 0x3C }
  - { offsetInCU: 0x116E6, offset: 0x116E6, size: 0x8, addend: 0x0, symName: __ZNSt3__114__split_bufferIiRNS_9allocatorIiEEE7__allocB8ue170006Ev, symObjAddr: 0x4DCC, symBinAddr: 0x100008034, symSize: 0x28 }
  - { offsetInCU: 0x1170B, offset: 0x1170B, size: 0x8, addend: 0x0, symName: __ZNSt3__114__split_bufferIiRNS_9allocatorIiEEE9__end_capB8ue170006Ev, symObjAddr: 0x4DF4, symBinAddr: 0x10000805C, symSize: 0x28 }
  - { offsetInCU: 0x11730, offset: 0x11730, size: 0x8, addend: 0x0, symName: __ZNSt3__117__compressed_pairIPiRNS_9allocatorIiEEEC2B8ue170006IDnS4_EEOT_OT0_, symObjAddr: 0x4E1C, symBinAddr: 0x100008084, symSize: 0x48 }
  - { offsetInCU: 0x11787, offset: 0x11787, size: 0x8, addend: 0x0, symName: __ZNSt3__122__compressed_pair_elemIRNS_9allocatorIiEELi1ELb0EEC2B8ue170006IS3_vEEOT_, symObjAddr: 0x4E64, symBinAddr: 0x1000080CC, symSize: 0x20 }
  - { offsetInCU: 0x117C8, offset: 0x117C8, size: 0x8, addend: 0x0, symName: __ZNSt3__117__compressed_pairIPiRNS_9allocatorIiEEE6secondB8ue170006Ev, symObjAddr: 0x4E84, symBinAddr: 0x1000080EC, symSize: 0x28 }
  - { offsetInCU: 0x117ED, offset: 0x117ED, size: 0x8, addend: 0x0, symName: __ZNSt3__122__compressed_pair_elemIRNS_9allocatorIiEELi1ELb0EE5__getB8ue170006Ev, symObjAddr: 0x4EAC, symBinAddr: 0x100008114, symSize: 0x18 }
  - { offsetInCU: 0x11812, offset: 0x11812, size: 0x8, addend: 0x0, symName: __ZNSt3__117__compressed_pairIPiRNS_9allocatorIiEEE5firstB8ue170006Ev, symObjAddr: 0x4EC4, symBinAddr: 0x10000812C, symSize: 0x24 }
  - { offsetInCU: 0x11841, offset: 0x11841, size: 0x8, addend: 0x0, symName: __ZNSt3__114__split_bufferIiRNS_9allocatorIiEEE21_ConstructTransactionC1B8ue170006EPPim, symObjAddr: 0x4EE8, symBinAddr: 0x100008150, symSize: 0x3C }
  - { offsetInCU: 0x11886, offset: 0x11886, size: 0x8, addend: 0x0, symName: __ZNSt3__114__split_bufferIiRNS_9allocatorIiEEE21_ConstructTransactionD1B8ue170006Ev, symObjAddr: 0x4F24, symBinAddr: 0x10000818C, symSize: 0x2C }
  - { offsetInCU: 0x118AF, offset: 0x118AF, size: 0x8, addend: 0x0, symName: __ZNSt3__114__split_bufferIiRNS_9allocatorIiEEE21_ConstructTransactionC2B8ue170006EPPim, symObjAddr: 0x4F50, symBinAddr: 0x1000081B8, symSize: 0x44 }
  - { offsetInCU: 0x118F4, offset: 0x118F4, size: 0x8, addend: 0x0, symName: __ZNSt3__114__split_bufferIiRNS_9allocatorIiEEE21_ConstructTransactionD2B8ue170006Ev, symObjAddr: 0x4F94, symBinAddr: 0x1000081FC, symSize: 0x20 }
  - { offsetInCU: 0x1191D, offset: 0x1191D, size: 0x8, addend: 0x0, symName: __ZNSt3__116reverse_iteratorIPiEC1B8ue170006ES1_, symObjAddr: 0x502C, symBinAddr: 0x100008294, symSize: 0x34 }
  - { offsetInCU: 0x11954, offset: 0x11954, size: 0x8, addend: 0x0, symName: __ZNKSt3__116reverse_iteratorIPiE4baseB8ue170006Ev, symObjAddr: 0x5060, symBinAddr: 0x1000082C8, symSize: 0x18 }
  - { offsetInCU: 0x11992, offset: 0x11992, size: 0x8, addend: 0x0, symName: __ZNKSt3__111__move_loopINS_17_ClassicAlgPolicyEEclB8ue170006INS_16reverse_iteratorIPiEES6_S6_EENS_4pairIT_T1_EES8_T0_S9_, symObjAddr: 0x53A4, symBinAddr: 0x10000860C, symSize: 0xA0 }
  - { offsetInCU: 0x11A01, offset: 0x11A01, size: 0x8, addend: 0x0, symName: __ZNSt3__18_IterOpsINS_17_ClassicAlgPolicyEE11__iter_moveB8ue170006IRNS_16reverse_iteratorIPiEEEENS_9enable_ifIXsr12is_referenceIDTdeclsr3stdE7declvalIRT_EEEEE5valueEDTclsr3stdE4movedeclsr3stdE7declvalISA_EEEEE4typeEOS9_, symObjAddr: 0x55D8, symBinAddr: 0x100008840, symSize: 0x28 }
  - { offsetInCU: 0x11A2D, offset: 0x11A2D, size: 0x8, addend: 0x0, symName: __ZNKSt3__116reverse_iteratorIPiEdeB8ue170006Ev, symObjAddr: 0x5600, symBinAddr: 0x100008868, symSize: 0x28 }
  - { offsetInCU: 0x11A60, offset: 0x11A60, size: 0x8, addend: 0x0, symName: __ZNSt3__116reverse_iteratorIPiEppB8ue170006Ev, symObjAddr: 0x5628, symBinAddr: 0x100008890, symSize: 0x20 }
  - { offsetInCU: 0x11A85, offset: 0x11A85, size: 0x8, addend: 0x0, symName: __ZNSt3__18_IterOpsINS_17_ClassicAlgPolicyEE25__validate_iter_referenceB8ue170006IRNS_16reverse_iteratorIPiEEEEvv, symObjAddr: 0x5648, symBinAddr: 0x1000088B0, symSize: 0x4 }
  - { offsetInCU: 0x11AA3, offset: 0x11AA3, size: 0x8, addend: 0x0, symName: __ZNSt3__118__unwrap_iter_implINS_16reverse_iteratorIPiEELb0EE8__unwrapB8ue170006ES3_, symObjAddr: 0x564C, symBinAddr: 0x1000088B4, symSize: 0x24 }
  - { offsetInCU: 0x11ACB, offset: 0x11ACB, size: 0x8, addend: 0x0, symName: __ZNSt3__14pairINS_16reverse_iteratorIPiEES3_EC1B8ue170006IS3_S3_LPv0EEEOT_OT0_, symObjAddr: 0x5670, symBinAddr: 0x1000088D8, symSize: 0x3C }
  - { offsetInCU: 0x11B28, offset: 0x11B28, size: 0x8, addend: 0x0, symName: __ZNSt3__14pairINS_16reverse_iteratorIPiEES3_EC2B8ue170006IS3_S3_LPv0EEEOT_OT0_, symObjAddr: 0x56AC, symBinAddr: 0x100008914, symSize: 0x34 }
  - { offsetInCU: 0x11B85, offset: 0x11B85, size: 0x8, addend: 0x0, symName: __ZNSt3__118__unwrap_iter_implINS_16reverse_iteratorIPiEELb0EE8__rewrapB8ue170006ES3_S3_, symObjAddr: 0x56E0, symBinAddr: 0x100008948, symSize: 0x2C }
  - { offsetInCU: 0x11BB3, offset: 0x11BB3, size: 0x8, addend: 0x0, symName: __ZNSt3__116reverse_iteratorIPiEC2B8ue170006ES1_, symObjAddr: 0x570C, symBinAddr: 0x100008974, symSize: 0x28 }
  - { offsetInCU: 0x11BEA, offset: 0x11BEA, size: 0x8, addend: 0x0, symName: __ZNSt3__114__split_bufferIiRNS_9allocatorIiEEED2Ev, symObjAddr: 0x5734, symBinAddr: 0x10000899C, symSize: 0x8C }
  - { offsetInCU: 0x11C15, offset: 0x11C15, size: 0x8, addend: 0x0, symName: __ZNSt3__114__split_bufferIiRNS_9allocatorIiEEE5clearB8ue170006Ev, symObjAddr: 0x57C0, symBinAddr: 0x100008A28, symSize: 0x28 }
  - { offsetInCU: 0x11C3A, offset: 0x11C3A, size: 0x8, addend: 0x0, symName: __ZNKSt3__114__split_bufferIiRNS_9allocatorIiEEE8capacityB8ue170006Ev, symObjAddr: 0x57E8, symBinAddr: 0x100008A50, symSize: 0x40 }
  - { offsetInCU: 0x11C5F, offset: 0x11C5F, size: 0x8, addend: 0x0, symName: __ZNSt3__114__split_bufferIiRNS_9allocatorIiEEE17__destruct_at_endB8ue170006EPi, symObjAddr: 0x5828, symBinAddr: 0x100008A90, symSize: 0x2C }
  - { offsetInCU: 0x11C91, offset: 0x11C91, size: 0x8, addend: 0x0, symName: __ZNSt3__114__split_bufferIiRNS_9allocatorIiEEE17__destruct_at_endB8ue170006EPiNS_17integral_constantIbLb0EEE, symObjAddr: 0x5854, symBinAddr: 0x100008ABC, symSize: 0x80 }
  - { offsetInCU: 0x11CD1, offset: 0x11CD1, size: 0x8, addend: 0x0, symName: __ZNKSt3__114__split_bufferIiRNS_9allocatorIiEEE9__end_capB8ue170006Ev, symObjAddr: 0x58D4, symBinAddr: 0x100008B3C, symSize: 0x28 }
  - { offsetInCU: 0x11CF6, offset: 0x11CF6, size: 0x8, addend: 0x0, symName: __ZNKSt3__117__compressed_pairIPiRNS_9allocatorIiEEE5firstB8ue170006Ev, symObjAddr: 0x58FC, symBinAddr: 0x100008B64, symSize: 0x24 }
  - { offsetInCU: 0x11D1B, offset: 0x11D1B, size: 0x8, addend: 0x0, symName: __ZNKSt3__16vectorIiNS_9allocatorIiEEE17__annotate_shrinkB8ue170006Em, symObjAddr: 0x5920, symBinAddr: 0x100008B88, symSize: 0xB4 }
  - { offsetInCU: 0x11D4F, offset: 0x11D4F, size: 0x8, addend: 0x0, symName: __ZNSt3__16vectorIfNS_9allocatorIfEEED2B8ue170006Ev, symObjAddr: 0x59D4, symBinAddr: 0x100008C3C, symSize: 0x44 }
  - { offsetInCU: 0x11D78, offset: 0x11D78, size: 0x8, addend: 0x0, symName: __ZNSt3__16vectorIfNS_9allocatorIfEEE16__destroy_vectorC1B8ue170006ERS3_, symObjAddr: 0x5A18, symBinAddr: 0x100008C80, symSize: 0x34 }
  - { offsetInCU: 0x11DB0, offset: 0x11DB0, size: 0x8, addend: 0x0, symName: __ZNSt3__16vectorIfNS_9allocatorIfEEE16__destroy_vectorclB8ue170006Ev, symObjAddr: 0x5A4C, symBinAddr: 0x100008CB4, symSize: 0x90 }
  - { offsetInCU: 0x11DD5, offset: 0x11DD5, size: 0x8, addend: 0x0, symName: __ZNSt3__16vectorIfNS_9allocatorIfEEE16__destroy_vectorC2B8ue170006ERS3_, symObjAddr: 0x5ADC, symBinAddr: 0x100008D44, symSize: 0x20 }
  - { offsetInCU: 0x11E0D, offset: 0x11E0D, size: 0x8, addend: 0x0, symName: __ZNSt3__16vectorIfNS_9allocatorIfEEE7__clearB8ue170006Ev, symObjAddr: 0x5AFC, symBinAddr: 0x100008D64, symSize: 0x28 }
  - { offsetInCU: 0x11E32, offset: 0x11E32, size: 0x8, addend: 0x0, symName: __ZN6TensorIfED2Ev, symObjAddr: 0x5B24, symBinAddr: 0x100008D8C, symSize: 0x98 }
  - { offsetInCU: 0x11E5B, offset: 0x11E5B, size: 0x8, addend: 0x0, symName: __ZN5ArrayIfED1Ev, symObjAddr: 0x5BBC, symBinAddr: 0x100008E24, symSize: 0x2C }
  - { offsetInCU: 0x11E84, offset: 0x11E84, size: 0x8, addend: 0x0, symName: __ZN5ArrayIfED2Ev, symObjAddr: 0x5BE8, symBinAddr: 0x100008E50, symSize: 0x44 }
  - { offsetInCU: 0x11EAD, offset: 0x11EAD, size: 0x8, addend: 0x0, symName: __ZN5ArrayIfE9randomizeEff, symObjAddr: 0x5C2C, symBinAddr: 0x100008E94, symSize: 0x114 }
  - { offsetInCU: 0x11F35, offset: 0x11F35, size: 0x8, addend: 0x0, symName: __ZNSt3__113basic_ostreamIcNS_11char_traitsIcEEElsB8ue170006EPFRS3_S4_E, symObjAddr: 0x5D88, symBinAddr: 0x100008FF0, symSize: 0x2C }
  - { offsetInCU: 0x11F81, offset: 0x11F81, size: 0x8, addend: 0x0, symName: __ZNSt3__113random_deviceC1B8ue170006Ev, symObjAddr: 0x5E0C, symBinAddr: 0x100009074, symSize: 0x74 }
  - { offsetInCU: 0x11FAA, offset: 0x11FAA, size: 0x8, addend: 0x0, symName: __ZNSt3__123mersenne_twister_engineIjLm32ELm624ELm397ELm31ELj2567483615ELm11ELj4294967295ELm7ELj2636928640ELm15ELj4022730752ELm18ELj1812433253EEC1B8ue170006Ej, symObjAddr: 0x5E80, symBinAddr: 0x1000090E8, symSize: 0x34 }
  - { offsetInCU: 0x12004, offset: 0x12004, size: 0x8, addend: 0x0, symName: __ZNSt3__125uniform_real_distributionIfEC1B8ue170006Eff, symObjAddr: 0x5EB4, symBinAddr: 0x10000911C, symSize: 0x3C }
  - { offsetInCU: 0x12049, offset: 0x12049, size: 0x8, addend: 0x0, symName: __ZN5ArrayIfE7getSizeEv, symObjAddr: 0x5EF0, symBinAddr: 0x100009158, symSize: 0x18 }
  - { offsetInCU: 0x12073, offset: 0x12073, size: 0x8, addend: 0x0, symName: __ZNSt3__125uniform_real_distributionIfEclB8ue170006INS_23mersenne_twister_engineIjLm32ELm624ELm397ELm31ELj2567483615ELm11ELj4294967295ELm7ELj2636928640ELm15ELj4022730752ELm18ELj1812433253EEEEEfRT_, symObjAddr: 0x5F08, symBinAddr: 0x100009170, symSize: 0x30 }
  - { offsetInCU: 0x120B4, offset: 0x120B4, size: 0x8, addend: 0x0, symName: __ZNSt3__112basic_stringIcNS_11char_traitsIcEENS_9allocatorIcEEEC1B8ue170006ILi0EEEPKc, symObjAddr: 0x5F38, symBinAddr: 0x1000091A0, symSize: 0x34 }
  - { offsetInCU: 0x120F2, offset: 0x120F2, size: 0x8, addend: 0x0, symName: __ZNSt3__112basic_stringIcNS_11char_traitsIcEENS_9allocatorIcEEEC2B8ue170006ILi0EEEPKc, symObjAddr: 0x5F6C, symBinAddr: 0x1000091D4, symSize: 0x58 }
  - { offsetInCU: 0x12130, offset: 0x12130, size: 0x8, addend: 0x0, symName: __ZNSt3__117__compressed_pairINS_12basic_stringIcNS_11char_traitsIcEENS_9allocatorIcEEE5__repES5_EC1B8ue170006INS_18__default_init_tagESA_EEOT_OT0_, symObjAddr: 0x5FC4, symBinAddr: 0x10000922C, symSize: 0x3C }
  - { offsetInCU: 0x12187, offset: 0x12187, size: 0x8, addend: 0x0, symName: __ZNSt3__111char_traitsIcE6lengthB8ue170006EPKc, symObjAddr: 0x6000, symBinAddr: 0x100009268, symSize: 0x34 }
  - { offsetInCU: 0x121AA, offset: 0x121AA, size: 0x8, addend: 0x0, symName: __ZNSt3__117__compressed_pairINS_12basic_stringIcNS_11char_traitsIcEENS_9allocatorIcEEE5__repES5_EC2B8ue170006INS_18__default_init_tagESA_EEOT_OT0_, symObjAddr: 0x6034, symBinAddr: 0x10000929C, symSize: 0x3C }
  - { offsetInCU: 0x12201, offset: 0x12201, size: 0x8, addend: 0x0, symName: __ZNSt3__122__compressed_pair_elemINS_12basic_stringIcNS_11char_traitsIcEENS_9allocatorIcEEE5__repELi0ELb0EEC2B8ue170006ENS_18__default_init_tagE, symObjAddr: 0x6070, symBinAddr: 0x1000092D8, symSize: 0x14 }
  - { offsetInCU: 0x12235, offset: 0x12235, size: 0x8, addend: 0x0, symName: __ZNSt3__122__compressed_pair_elemINS_9allocatorIcEELi1ELb1EEC2B8ue170006ENS_18__default_init_tagE, symObjAddr: 0x6084, symBinAddr: 0x1000092EC, symSize: 0x2C }
  - { offsetInCU: 0x12269, offset: 0x12269, size: 0x8, addend: 0x0, symName: __ZNSt3__19allocatorIcEC2B8ue170006Ev, symObjAddr: 0x60B0, symBinAddr: 0x100009318, symSize: 0x2C }
  - { offsetInCU: 0x12292, offset: 0x12292, size: 0x8, addend: 0x0, symName: __ZNSt3__116__non_trivial_ifILb1ENS_9allocatorIcEEEC2B8ue170006Ev, symObjAddr: 0x60DC, symBinAddr: 0x100009344, symSize: 0x14 }
  - { offsetInCU: 0x122BB, offset: 0x122BB, size: 0x8, addend: 0x0, symName: __ZNSt3__123mersenne_twister_engineIjLm32ELm624ELm397ELm31ELj2567483615ELm11ELj4294967295ELm7ELj2636928640ELm15ELj4022730752ELm18ELj1812433253EEC2B8ue170006Ej, symObjAddr: 0x6114, symBinAddr: 0x10000937C, symSize: 0x34 }
  - { offsetInCU: 0x122F1, offset: 0x122F1, size: 0x8, addend: 0x0, symName: __ZNSt3__123mersenne_twister_engineIjLm32ELm624ELm397ELm31ELj2567483615ELm11ELj4294967295ELm7ELj2636928640ELm15ELj4022730752ELm18ELj1812433253EE4seedEj, symObjAddr: 0x6148, symBinAddr: 0x1000093B0, symSize: 0xC4 }
  - { offsetInCU: 0x12343, offset: 0x12343, size: 0x8, addend: 0x0, symName: __ZNSt3__123mersenne_twister_engineIjLm32ELm624ELm397ELm31ELj2567483615ELm11ELj4294967295ELm7ELj2636928640ELm15ELj4022730752ELm18ELj1812433253EE8__rshiftB8ue170006ILm30EEENS_9enable_ifIXltT_L_ZNS1_3_DtEEEjE4typeEj, symObjAddr: 0x620C, symBinAddr: 0x100009474, symSize: 0x18 }
  - { offsetInCU: 0x12370, offset: 0x12370, size: 0x8, addend: 0x0, symName: __ZNSt3__125uniform_real_distributionIfEC2B8ue170006Eff, symObjAddr: 0x6224, symBinAddr: 0x10000948C, symSize: 0x3C }
  - { offsetInCU: 0x123B5, offset: 0x123B5, size: 0x8, addend: 0x0, symName: __ZNSt3__125uniform_real_distributionIfE10param_typeC1B8ue170006Eff, symObjAddr: 0x6260, symBinAddr: 0x1000094C8, symSize: 0x3C }
  - { offsetInCU: 0x123FA, offset: 0x123FA, size: 0x8, addend: 0x0, symName: __ZNSt3__125uniform_real_distributionIfE10param_typeC2B8ue170006Eff, symObjAddr: 0x629C, symBinAddr: 0x100009504, symSize: 0x2C }
  - { offsetInCU: 0x1243F, offset: 0x1243F, size: 0x8, addend: 0x0, symName: __ZNSt3__125uniform_real_distributionIfEclINS_23mersenne_twister_engineIjLm32ELm624ELm397ELm31ELj2567483615ELm11ELj4294967295ELm7ELj2636928640ELm15ELj4022730752ELm18ELj1812433253EEEEEfRT_RKNS1_10param_typeE, symObjAddr: 0x62C8, symBinAddr: 0x100009530, symSize: 0x6C }
  - { offsetInCU: 0x1248A, offset: 0x1248A, size: 0x8, addend: 0x0, symName: __ZNKSt3__125uniform_real_distributionIfE10param_type1bB8ue170006Ev, symObjAddr: 0x6334, symBinAddr: 0x10000959C, symSize: 0x18 }
  - { offsetInCU: 0x124AF, offset: 0x124AF, size: 0x8, addend: 0x0, symName: __ZNKSt3__125uniform_real_distributionIfE10param_type1aB8ue170006Ev, symObjAddr: 0x634C, symBinAddr: 0x1000095B4, symSize: 0x18 }
  - { offsetInCU: 0x124D4, offset: 0x124D4, size: 0x8, addend: 0x0, symName: __ZNSt3__123mersenne_twister_engineIjLm32ELm624ELm397ELm31ELj2567483615ELm11ELj4294967295ELm7ELj2636928640ELm15ELj4022730752ELm18ELj1812433253EE3maxB8ue170006Ev, symObjAddr: 0x647C, symBinAddr: 0x1000096E4, symSize: 0x8 }
  - { offsetInCU: 0x124E8, offset: 0x124E8, size: 0x8, addend: 0x0, symName: __ZNSt3__123mersenne_twister_engineIjLm32ELm624ELm397ELm31ELj2567483615ELm11ELj4294967295ELm7ELj2636928640ELm15ELj4022730752ELm18ELj1812433253EE3minB8ue170006Ev, symObjAddr: 0x6484, symBinAddr: 0x1000096EC, symSize: 0x8 }
  - { offsetInCU: 0x124FB, offset: 0x124FB, size: 0x8, addend: 0x0, symName: __ZNSt3__123mersenne_twister_engineIjLm32ELm624ELm397ELm31ELj2567483615ELm11ELj4294967295ELm7ELj2636928640ELm15ELj4022730752ELm18ELj1812433253EEclEv, symObjAddr: 0x648C, symBinAddr: 0x1000096F4, symSize: 0x14C }
  - { offsetInCU: 0x1256D, offset: 0x1256D, size: 0x8, addend: 0x0, symName: __ZNSt3__123mersenne_twister_engineIjLm32ELm624ELm397ELm31ELj2567483615ELm11ELj4294967295ELm7ELj2636928640ELm15ELj4022730752ELm18ELj1812433253EE8__rshiftB8ue170006ILm1EEENS_9enable_ifIXltT_L_ZNS1_3_DtEEEjE4typeEj, symObjAddr: 0x65D8, symBinAddr: 0x100009840, symSize: 0x18 }
  - { offsetInCU: 0x1259A, offset: 0x1259A, size: 0x8, addend: 0x0, symName: __ZNSt3__123mersenne_twister_engineIjLm32ELm624ELm397ELm31ELj2567483615ELm11ELj4294967295ELm7ELj2636928640ELm15ELj4022730752ELm18ELj1812433253EE8__rshiftB8ue170006ILm11EEENS_9enable_ifIXltT_L_ZNS1_3_DtEEEjE4typeEj, symObjAddr: 0x65F0, symBinAddr: 0x100009858, symSize: 0x18 }
  - { offsetInCU: 0x125C7, offset: 0x125C7, size: 0x8, addend: 0x0, symName: __ZNSt3__123mersenne_twister_engineIjLm32ELm624ELm397ELm31ELj2567483615ELm11ELj4294967295ELm7ELj2636928640ELm15ELj4022730752ELm18ELj1812433253EE8__lshiftB8ue170006ILm7EEENS_9enable_ifIXltT_Lm32EEjE4typeEj, symObjAddr: 0x6608, symBinAddr: 0x100009870, symSize: 0x1C }
  - { offsetInCU: 0x125F4, offset: 0x125F4, size: 0x8, addend: 0x0, symName: __ZNSt3__123mersenne_twister_engineIjLm32ELm624ELm397ELm31ELj2567483615ELm11ELj4294967295ELm7ELj2636928640ELm15ELj4022730752ELm18ELj1812433253EE8__lshiftB8ue170006ILm15EEENS_9enable_ifIXltT_Lm32EEjE4typeEj, symObjAddr: 0x6624, symBinAddr: 0x10000988C, symSize: 0x1C }
  - { offsetInCU: 0x12621, offset: 0x12621, size: 0x8, addend: 0x0, symName: __ZNSt3__123mersenne_twister_engineIjLm32ELm624ELm397ELm31ELj2567483615ELm11ELj4294967295ELm7ELj2636928640ELm15ELj4022730752ELm18ELj1812433253EE8__rshiftB8ue170006ILm18EEENS_9enable_ifIXltT_L_ZNS1_3_DtEEEjE4typeEj, symObjAddr: 0x6640, symBinAddr: 0x1000098A8, symSize: 0x18 }
  - { offsetInCU: 0x1266C, offset: 0x1266C, size: 0x8, addend: 0x0, symName: __ZNKSt3__113basic_ostreamIcNS_11char_traitsIcEEE6sentrycvbB8ue170006Ev, symObjAddr: 0x6844, symBinAddr: 0x100009AAC, symSize: 0x1C }
  - { offsetInCU: 0x12691, offset: 0x12691, size: 0x8, addend: 0x0, symName: __ZNSt3__119ostreambuf_iteratorIcNS_11char_traitsIcEEEC1B8ue170006ERNS_13basic_ostreamIcS2_EE, symObjAddr: 0x6AA0, symBinAddr: 0x100009D08, symSize: 0x34 }
  - { offsetInCU: 0x126C8, offset: 0x126C8, size: 0x8, addend: 0x0, symName: __ZNKSt3__18ios_base5flagsB8ue170006Ev, symObjAddr: 0x6AD4, symBinAddr: 0x100009D3C, symSize: 0x18 }
  - { offsetInCU: 0x126EE, offset: 0x126EE, size: 0x8, addend: 0x0, symName: __ZNKSt3__19basic_iosIcNS_11char_traitsIcEEE4fillB8ue170006Ev, symObjAddr: 0x6AEC, symBinAddr: 0x100009D54, symSize: 0x64 }
  - { offsetInCU: 0x12715, offset: 0x12715, size: 0x8, addend: 0x0, symName: __ZNKSt3__119ostreambuf_iteratorIcNS_11char_traitsIcEEE6failedB8ue170006Ev, symObjAddr: 0x6B50, symBinAddr: 0x100009DB8, symSize: 0x24 }
  - { offsetInCU: 0x1273A, offset: 0x1273A, size: 0x8, addend: 0x0, symName: __ZNSt3__19basic_iosIcNS_11char_traitsIcEEE8setstateB8ue170006Ej, symObjAddr: 0x6B74, symBinAddr: 0x100009DDC, symSize: 0x2C }
  - { offsetInCU: 0x1276E, offset: 0x1276E, size: 0x8, addend: 0x0, symName: __ZNKSt3__18ios_base5widthB8ue170006Ev, symObjAddr: 0x6BA0, symBinAddr: 0x100009E08, symSize: 0x18 }
  - { offsetInCU: 0x12795, offset: 0x12795, size: 0x8, addend: 0x0, symName: __ZNSt3__115basic_streambufIcNS_11char_traitsIcEEE5sputnB8ue170006EPKcl, symObjAddr: 0x6BB8, symBinAddr: 0x100009E20, symSize: 0x3C }
  - { offsetInCU: 0x127D6, offset: 0x127D6, size: 0x8, addend: 0x0, symName: __ZNSt3__112basic_stringIcNS_11char_traitsIcEENS_9allocatorIcEEEC1B8ue170006Emc, symObjAddr: 0x6BF4, symBinAddr: 0x100009E5C, symSize: 0x3C }
  - { offsetInCU: 0x1281D, offset: 0x1281D, size: 0x8, addend: 0x0, symName: __ZNKSt3__112basic_stringIcNS_11char_traitsIcEENS_9allocatorIcEEE4dataB8ue170006Ev, symObjAddr: 0x6C30, symBinAddr: 0x100009E98, symSize: 0x28 }
  - { offsetInCU: 0x12842, offset: 0x12842, size: 0x8, addend: 0x0, symName: __ZNSt3__18ios_base5widthB8ue170006El, symObjAddr: 0x6C58, symBinAddr: 0x100009EC0, symSize: 0x2C }
  - { offsetInCU: 0x12887, offset: 0x12887, size: 0x8, addend: 0x0, symName: __ZNSt3__112basic_stringIcNS_11char_traitsIcEENS_9allocatorIcEEEC2B8ue170006Emc, symObjAddr: 0x6C84, symBinAddr: 0x100009EEC, symSize: 0x4C }
  - { offsetInCU: 0x128CE, offset: 0x128CE, size: 0x8, addend: 0x0, symName: __ZNKSt3__112basic_stringIcNS_11char_traitsIcEENS_9allocatorIcEEE13__get_pointerB8ue170006Ev, symObjAddr: 0x6CE4, symBinAddr: 0x100009F4C, symSize: 0x54 }
  - { offsetInCU: 0x128F3, offset: 0x128F3, size: 0x8, addend: 0x0, symName: __ZNKSt3__112basic_stringIcNS_11char_traitsIcEENS_9allocatorIcEEE9__is_longB8ue170006Ev, symObjAddr: 0x6D38, symBinAddr: 0x100009FA0, symSize: 0x38 }
  - { offsetInCU: 0x12918, offset: 0x12918, size: 0x8, addend: 0x0, symName: __ZNKSt3__112basic_stringIcNS_11char_traitsIcEENS_9allocatorIcEEE18__get_long_pointerB8ue170006Ev, symObjAddr: 0x6D70, symBinAddr: 0x100009FD8, symSize: 0x28 }
  - { offsetInCU: 0x1293D, offset: 0x1293D, size: 0x8, addend: 0x0, symName: __ZNKSt3__112basic_stringIcNS_11char_traitsIcEENS_9allocatorIcEEE19__get_short_pointerB8ue170006Ev, symObjAddr: 0x6D98, symBinAddr: 0x10000A000, symSize: 0x28 }
  - { offsetInCU: 0x12962, offset: 0x12962, size: 0x8, addend: 0x0, symName: __ZNKSt3__117__compressed_pairINS_12basic_stringIcNS_11char_traitsIcEENS_9allocatorIcEEE5__repES5_E5firstB8ue170006Ev, symObjAddr: 0x6DC0, symBinAddr: 0x10000A028, symSize: 0x24 }
  - { offsetInCU: 0x12987, offset: 0x12987, size: 0x8, addend: 0x0, symName: __ZNKSt3__122__compressed_pair_elemINS_12basic_stringIcNS_11char_traitsIcEENS_9allocatorIcEEE5__repELi0ELb0EE5__getB8ue170006Ev, symObjAddr: 0x6DE4, symBinAddr: 0x10000A04C, symSize: 0x14 }
  - { offsetInCU: 0x129AC, offset: 0x129AC, size: 0x8, addend: 0x0, symName: __ZNSt3__114pointer_traitsIPKcE10pointer_toB8ue170006ERS1_, symObjAddr: 0x6DF8, symBinAddr: 0x10000A060, symSize: 0x14 }
  - { offsetInCU: 0x129CF, offset: 0x129CF, size: 0x8, addend: 0x0, symName: __ZNSt3__119ostreambuf_iteratorIcNS_11char_traitsIcEEEC2B8ue170006ERNS_13basic_ostreamIcS2_EE, symObjAddr: 0x6E0C, symBinAddr: 0x10000A074, symSize: 0x54 }
  - { offsetInCU: 0x12A05, offset: 0x12A05, size: 0x8, addend: 0x0, symName: __ZNKSt3__19basic_iosIcNS_11char_traitsIcEEE5rdbufB8ue170006Ev, symObjAddr: 0x6E60, symBinAddr: 0x10000A0C8, symSize: 0x24 }
  - { offsetInCU: 0x12A2C, offset: 0x12A2C, size: 0x8, addend: 0x0, symName: __ZNKSt3__18ios_base5rdbufB8ue170006Ev, symObjAddr: 0x6E84, symBinAddr: 0x10000A0EC, symSize: 0x18 }
  - { offsetInCU: 0x12A51, offset: 0x12A51, size: 0x8, addend: 0x0, symName: __ZNSt3__111char_traitsIcE11eq_int_typeB8ue170006Eii, symObjAddr: 0x6E9C, symBinAddr: 0x10000A104, symSize: 0x28 }
  - { offsetInCU: 0x12A84, offset: 0x12A84, size: 0x8, addend: 0x0, symName: __ZNSt3__111char_traitsIcE3eofB8ue170006Ev, symObjAddr: 0x6EC4, symBinAddr: 0x10000A12C, symSize: 0x8 }
  - { offsetInCU: 0x12A97, offset: 0x12A97, size: 0x8, addend: 0x0, symName: __ZNKSt3__19basic_iosIcNS_11char_traitsIcEEE5widenB8ue170006Ec, symObjAddr: 0x6ECC, symBinAddr: 0x10000A134, symSize: 0x84 }
  - { offsetInCU: 0x12AFF, offset: 0x12AFF, size: 0x8, addend: 0x0, symName: __ZNKSt3__15ctypeIcE5widenB8ue170006Ec, symObjAddr: 0x6F7C, symBinAddr: 0x10000A1E4, symSize: 0x38 }
  - { offsetInCU: 0x12B32, offset: 0x12B32, size: 0x8, addend: 0x0, symName: __ZNSt3__18ios_base8setstateB8ue170006Ej, symObjAddr: 0x6FB4, symBinAddr: 0x10000A21C, symSize: 0x34 }
  - { offsetInCU: 0x12B68, offset: 0x12B68, size: 0x8, addend: 0x0, symName: __ZN5ArrayIfE5printEv, symObjAddr: 0x6FE8, symBinAddr: 0x10000A250, symSize: 0x1DC }
  - { offsetInCU: 0x12BC4, offset: 0x12BC4, size: 0x8, addend: 0x0, symName: __ZN5ArrayIfE8getShapeEv, symObjAddr: 0x71C4, symBinAddr: 0x10000A42C, symSize: 0x38 }
  - { offsetInCU: 0x12BE9, offset: 0x12BE9, size: 0x8, addend: 0x0, symName: __ZNSt3__16vectorIiNS_9allocatorIiEEEC1EmRKi, symObjAddr: 0x71FC, symBinAddr: 0x10000A464, symSize: 0x3C }
  - { offsetInCU: 0x12C32, offset: 0x12C32, size: 0x8, addend: 0x0, symName: __ZN5ArrayIfE2atERKNSt3__16vectorIiNS1_9allocatorIiEEEE, symObjAddr: 0x7238, symBinAddr: 0x10000A4A0, symSize: 0x8C }
  - { offsetInCU: 0x12C74, offset: 0x12C74, size: 0x8, addend: 0x0, symName: __ZNSt3__16vectorIiNS_9allocatorIiEEEC2EmRKi, symObjAddr: 0x72C4, symBinAddr: 0x10000A52C, symSize: 0xDC }
  - { offsetInCU: 0x12CD1, offset: 0x12CD1, size: 0x8, addend: 0x0, symName: __ZNSt3__16vectorIiNS_9allocatorIiEEE18__construct_at_endEmRKi, symObjAddr: 0x73A0, symBinAddr: 0x10000A608, symSize: 0xD0 }
  - { offsetInCU: 0x12D51, offset: 0x12D51, size: 0x8, addend: 0x0, symName: __ZNSt3__116allocator_traitsINS_9allocatorIiEEE9constructB8ue170006IiJRKiEvEEvRS2_PT_DpOT0_, symObjAddr: 0x7470, symBinAddr: 0x10000A6D8, symSize: 0x34 }
  - { offsetInCU: 0x12DA8, offset: 0x12DA8, size: 0x8, addend: 0x0, symName: __ZNSt3__19allocatorIiE9constructB8ue170006IiJRKiEEEvPT_DpOT0_, symObjAddr: 0x74A4, symBinAddr: 0x10000A70C, symSize: 0x28 }
  - { offsetInCU: 0x12DFD, offset: 0x12DFD, size: 0x8, addend: 0x0, symName: __ZNK5ArrayIfE9flatIndexENSt3__16vectorIiNS1_9allocatorIiEEEE, symObjAddr: 0x74CC, symBinAddr: 0x10000A734, symSize: 0xA8 }
  - { offsetInCU: 0x12E5C, offset: 0x12E5C, size: 0x8, addend: 0x0, symName: __ZN5ArrayIfE7getDataEv, symObjAddr: 0x7574, symBinAddr: 0x10000A7DC, symSize: 0x3C }
  - { offsetInCU: 0x12E81, offset: 0x12E81, size: 0x8, addend: 0x0, symName: __ZNSt3__16vectorIfNS_9allocatorIfEEEC1ERKS3_, symObjAddr: 0x75B0, symBinAddr: 0x10000A818, symSize: 0x34 }
  - { offsetInCU: 0x12EBB, offset: 0x12EBB, size: 0x8, addend: 0x0, symName: __ZNSt3__16vectorIfNS_9allocatorIfEEEC2ERKS3_, symObjAddr: 0x75E4, symBinAddr: 0x10000A84C, symSize: 0x94 }
  - { offsetInCU: 0x12EF5, offset: 0x12EF5, size: 0x8, addend: 0x0, symName: __ZNSt3__116allocator_traitsINS_9allocatorIfEEE37select_on_container_copy_constructionB8ue170006IS2_vvEES2_RKS2_, symObjAddr: 0x7678, symBinAddr: 0x10000A8E0, symSize: 0x10 }
  - { offsetInCU: 0x12F29, offset: 0x12F29, size: 0x8, addend: 0x0, symName: __ZNSt3__117__compressed_pairIPfNS_9allocatorIfEEEC1B8ue170006IDnS3_EEOT_OT0_, symObjAddr: 0x7688, symBinAddr: 0x10000A8F0, symSize: 0x3C }
  - { offsetInCU: 0x12F80, offset: 0x12F80, size: 0x8, addend: 0x0, symName: __ZNSt3__16vectorIfNS_9allocatorIfEEE16__init_with_sizeB8ue170006IPfS5_EEvT_T0_m, symObjAddr: 0x76C4, symBinAddr: 0x10000A92C, symSize: 0xB8 }
  - { offsetInCU: 0x12FF3, offset: 0x12FF3, size: 0x8, addend: 0x0, symName: __ZNSt3__117__compressed_pairIPfNS_9allocatorIfEEEC2B8ue170006IDnS3_EEOT_OT0_, symObjAddr: 0x777C, symBinAddr: 0x10000A9E4, symSize: 0x44 }
  - { offsetInCU: 0x1304A, offset: 0x1304A, size: 0x8, addend: 0x0, symName: __ZNSt3__122__compressed_pair_elemINS_9allocatorIfEELi1ELb1EEC2B8ue170006IS2_vEEOT_, symObjAddr: 0x77C0, symBinAddr: 0x10000AA28, symSize: 0x18 }
  - { offsetInCU: 0x1308B, offset: 0x1308B, size: 0x8, addend: 0x0, symName: __ZNSt3__16vectorIfNS_9allocatorIfEEE11__vallocateB8ue170006Em, symObjAddr: 0x7818, symBinAddr: 0x10000AA80, symSize: 0xAC }
  - { offsetInCU: 0x130CD, offset: 0x130CD, size: 0x8, addend: 0x0, symName: __ZNSt3__16vectorIfNS_9allocatorIfEEE18__construct_at_endIPfS5_EEvT_T0_m, symObjAddr: 0x78C4, symBinAddr: 0x10000AB2C, symSize: 0x8C }
  - { offsetInCU: 0x13142, offset: 0x13142, size: 0x8, addend: 0x0, symName: __ZNSt3__128__exception_guard_exceptionsINS_6vectorIfNS_9allocatorIfEEE16__destroy_vectorEE10__completeB8ue170006Ev, symObjAddr: 0x7950, symBinAddr: 0x10000ABB8, symSize: 0x1C }
  - { offsetInCU: 0x13167, offset: 0x13167, size: 0x8, addend: 0x0, symName: __ZNSt3__128__exception_guard_exceptionsINS_6vectorIfNS_9allocatorIfEEE16__destroy_vectorEED1B8ue170006Ev, symObjAddr: 0x796C, symBinAddr: 0x10000ABD4, symSize: 0x2C }
  - { offsetInCU: 0x13190, offset: 0x13190, size: 0x8, addend: 0x0, symName: __ZNSt3__128__exception_guard_exceptionsINS_6vectorIfNS_9allocatorIfEEE16__destroy_vectorEEC1B8ue170006ES5_, symObjAddr: 0x7998, symBinAddr: 0x10000AC00, symSize: 0x34 }
  - { offsetInCU: 0x131C7, offset: 0x131C7, size: 0x8, addend: 0x0, symName: __ZNSt3__128__exception_guard_exceptionsINS_6vectorIfNS_9allocatorIfEEE16__destroy_vectorEEC2B8ue170006ES5_, symObjAddr: 0x79CC, symBinAddr: 0x10000AC34, symSize: 0x24 }
  - { offsetInCU: 0x1321C, offset: 0x1321C, size: 0x8, addend: 0x0, symName: __ZNSt3__14pairIPfS1_EC1B8ue170006IS1_S1_LPv0EEEOT_OT0_, symObjAddr: 0x7BA0, symBinAddr: 0x10000AE08, symSize: 0x3C }
  - { offsetInCU: 0x13279, offset: 0x13279, size: 0x8, addend: 0x0, symName: __ZNSt3__14pairIPfS1_EC2B8ue170006IS1_S1_LPv0EEEOT_OT0_, symObjAddr: 0x7BDC, symBinAddr: 0x10000AE44, symSize: 0x34 }
  - { offsetInCU: 0x132D6, offset: 0x132D6, size: 0x8, addend: 0x0, symName: __ZNKSt3__114__copy_trivialclB8ue170006IffLi0EEENS_4pairIPT_PT0_EES4_S4_S6_, symObjAddr: 0x7D8C, symBinAddr: 0x10000AFF4, symSize: 0x48 }
  - { offsetInCU: 0x1333D, offset: 0x1333D, size: 0x8, addend: 0x0, symName: __ZNSt3__14pairIPfS1_EC1B8ue170006IRS1_S1_LPv0EEEOT_OT0_, symObjAddr: 0x7F1C, symBinAddr: 0x10000B184, symSize: 0x3C }
  - { offsetInCU: 0x1339A, offset: 0x1339A, size: 0x8, addend: 0x0, symName: __ZNSt3__14pairIPfS1_EC2B8ue170006IRS1_S1_LPv0EEEOT_OT0_, symObjAddr: 0x7F58, symBinAddr: 0x10000B1C0, symSize: 0x34 }
  - { offsetInCU: 0x133F7, offset: 0x133F7, size: 0x8, addend: 0x0, symName: __ZNSt3__118__unwrap_iter_implIPfLb1EE8__unwrapB8ue170006ES1_, symObjAddr: 0x7F8C, symBinAddr: 0x10000B1F4, symSize: 0x24 }
  - { offsetInCU: 0x1341A, offset: 0x1341A, size: 0x8, addend: 0x0, symName: __ZNSt3__118__unwrap_iter_implIPfLb1EE8__rewrapB8ue170006ES1_S1_, symObjAddr: 0x7FB0, symBinAddr: 0x10000B218, symSize: 0x50 }
  - { offsetInCU: 0x1344B, offset: 0x1344B, size: 0x8, addend: 0x0, symName: __ZNSt3__128__exception_guard_exceptionsINS_6vectorIfNS_9allocatorIfEEE16__destroy_vectorEED2B8ue170006Ev, symObjAddr: 0x8000, symBinAddr: 0x10000B268, symSize: 0x48 }
...
